(dp1
S'files'
p2
(dp3
S'_usr_local_lib_python2_7_dist-packages_django_utils_http'
p4
(dp5
S'index'
p6
(dp7
S'html_filename'
p8
S'_usr_local_lib_python2_7_dist-packages_django_utils_http.html'
p9
sS'name'
p10
S'/usr/local/lib/python2.7/dist-packages/django/utils/http'
p11
sS'nums'
p12
ccopy_reg
_reconstructor
p13
(ccoverage.results
Numbers
p14
c__builtin__
object
p15
NtRp16
(dp17
S'n_files'
p18
I1
sS'n_branches'
p19
I0
sS'n_statements'
p20
I130
sS'n_excluded'
p21
I0
sS'n_partial_branches'
p22
I0
sS'n_missing'
p23
I81
sS'n_missing_branches'
p24
I0
sbssS'hash'
p25
S'{\x07\xedG3\x1dC$\x931`a\x85\xf1\xe0>'
p26
ssS'_usr_local_lib_python2_7_dist-packages_django_core_serializers_json'
p27
(dp28
g6
(dp29
g8
S'_usr_local_lib_python2_7_dist-packages_django_core_serializers_json.html'
p30
sg10
S'/usr/local/lib/python2.7/dist-packages/django/core/serializers/json'
p31
sg12
g13
(g14
g15
NtRp32
(dp33
g18
I1
sg19
I0
sg20
I73
sg21
I0
sg22
I0
sg23
I53
sg24
I0
sbssg25
S'\xaf \xfb\x940\xae\x9c\x8f\xd6\x83B\xf2\x8aV?\xb7'
p34
ssS'_usr_local_lib_python2_7_dist-packages_django_contrib_admin_templatetags_admin_urls'
p35
(dp36
g6
(dp37
g8
S'_usr_local_lib_python2_7_dist-packages_django_contrib_admin_templatetags_admin_urls.html'
p38
sg10
S'/usr/local/lib/python2.7/dist-packages/django/contrib/admin/templatetags/admin_urls'
p39
sg12
g13
(g14
g15
NtRp40
(dp41
g18
I1
sg19
I0
sg20
I37
sg21
I0
sg22
I0
sg23
I24
sg24
I0
sbssg25
S'\x96L\xa8\x01\x9c\xd4\xa4\xefDd\xaa&wO\xd8\xa5'
p42
ssS'_usr_local_lib_python2_7_dist-packages_django_contrib_sessions_backends_db'
p43
(dp44
g6
(dp45
g8
S'_usr_local_lib_python2_7_dist-packages_django_contrib_sessions_backends_db.html'
p46
sg10
S'/usr/local/lib/python2.7/dist-packages/django/contrib/sessions/backends/db'
p47
sg12
g13
(g14
g15
NtRp48
(dp49
g18
I1
sg19
I0
sg20
I53
sg21
I0
sg22
I0
sg23
I37
sg24
I0
sbssg25
S'\xd8\xb1\xe6\x13OWmQ\xd0\x8b\xa45\xfb\xe3\x9e*'
p50
ssS'_usr_local_lib_python2_7_dist-packages_django_core_files_uploadedfile'
p51
(dp52
g6
(dp53
g8
S'_usr_local_lib_python2_7_dist-packages_django_core_files_uploadedfile.html'
p54
sg10
S'/usr/local/lib/python2.7/dist-packages/django/core/files/uploadedfile'
p55
sg12
g13
(g14
g15
NtRp56
(dp57
g18
I1
sg19
I0
sg20
I60
sg21
I0
sg22
I0
sg23
I32
sg24
I0
sbssg25
S'\xf9\x14\xfc\xaeej\x98\x970T\xbd\x8e\x1a$\xedq'
p58
ssS'_usr_local_lib_python2_7_dist-packages_django_core_files_utils'
p59
(dp60
g6
(dp61
g8
S'_usr_local_lib_python2_7_dist-packages_django_core_files_utils.html'
p62
sg10
S'/usr/local/lib/python2.7/dist-packages/django/core/files/utils'
p63
sg12
g13
(g14
g15
NtRp64
(dp65
g18
I1
sg19
I0
sg20
I19
sg21
I0
sg22
I0
sg23
I1
sg24
I0
sbssg25
S'\x91@)\xe4(\x81\xd6\xb8\x9b\x16\xc4\xeeh\x11e\xff'
p66
ssS'_usr_local_lib_python2_7_dist-packages_django_core_files_storage'
p67
(dp68
g6
(dp69
g8
S'_usr_local_lib_python2_7_dist-packages_django_core_files_storage.html'
p70
sg10
S'/usr/local/lib/python2.7/dist-packages/django/core/files/storage'
p71
sg12
g13
(g14
g15
NtRp72
(dp73
g18
I1
sg19
I0
sg20
I146
sg21
I0
sg22
I0
sg23
I92
sg24
I0
sbssg25
S't\x9b/\xa5)3\xbc\xaff\xff;w\xaa\x99#\xe2'
p74
ssS'_usr_local_lib_python2_7_dist-packages_django_utils_translation_trans_real'
p75
(dp76
g6
(dp77
g8
S'_usr_local_lib_python2_7_dist-packages_django_utils_translation_trans_real.html'
p78
sg10
S'/usr/local/lib/python2.7/dist-packages/django/utils/translation/trans_real'
p79
sg12
g13
(g14
g15
NtRp80
(dp81
g18
I1
sg19
I0
sg20
I411
sg21
I0
sg22
I0
sg23
I268
sg24
I0
sbssg25
S'Tw\x8c\xd9\xc71di\xba\xcf\xb2_\xed\x83\xb0\x11'
p82
ssS'_usr_local_lib_python2_7_dist-packages_django_http___init__'
p83
(dp84
g6
(dp85
g8
S'_usr_local_lib_python2_7_dist-packages_django_http___init__.html'
p86
sg10
S'/usr/local/lib/python2.7/dist-packages/django/http/__init__'
p87
sg12
g13
(g14
g15
NtRp88
(dp89
g18
I1
sg19
I0
sg20
I4
sg21
I0
sg22
I0
sg23
I0
sg24
I0
sbssg25
S'9D\xc4$2\xe1*J\xb6\xd3\x1b\xbe-\x93\x1c%'
p90
ssS'_usr_local_lib_python2_7_dist-packages_django_contrib_admin___init__'
p91
(dp92
g6
(dp93
g8
S'_usr_local_lib_python2_7_dist-packages_django_contrib_admin___init__.html'
p94
sg10
S'/usr/local/lib/python2.7/dist-packages/django/contrib/admin/__init__'
p95
sg12
g13
(g14
g15
NtRp96
(dp97
g18
I1
sg19
I0
sg20
I19
sg21
I0
sg22
I0
sg23
I1
sg24
I0
sbssg25
S"\xd5?\x9e\xd9\x8c\x0c\x92\xe6'\x9e\x10l\xc5\xcd\xb8p"
p98
ssS'_usr_local_lib_python2_7_dist-packages_django_utils_ipv6'
p99
(dp100
g6
(dp101
g8
S'_usr_local_lib_python2_7_dist-packages_django_utils_ipv6.html'
p102
sg10
S'/usr/local/lib/python2.7/dist-packages/django/utils/ipv6'
p103
sg12
g13
(g14
g15
NtRp104
(dp105
g18
I1
sg19
I0
sg20
I108
sg21
I0
sg22
I0
sg23
I99
sg24
I0
sbssg25
S'N:\xe1h\xb3\xdd_\x1a\xda\xc3SD\x86\x08\xfa\x8d'
p106
ssS'_usr_local_lib_python2_7_dist-packages_django_contrib_sites___init__'
p107
(dp108
g6
(dp109
g8
S'_usr_local_lib_python2_7_dist-packages_django_contrib_sites___init__.html'
p110
sg10
S'/usr/local/lib/python2.7/dist-packages/django/contrib/sites/__init__'
p111
sg12
g13
(g14
g15
NtRp112
(dp113
g18
I1
sg19
I0
sg20
I0
sg21
I0
sg22
I0
sg23
I0
sg24
I0
sbssg25
S'\xb0\xc8pN\xaf>\xa0\xbaz\x144\xe0A9\xb8?'
p114
ssS'_usr_local_lib_python2_7_dist-packages_django_utils_html'
p115
(dp116
g6
(dp117
g8
S'_usr_local_lib_python2_7_dist-packages_django_utils_html.html'
p118
sg10
S'/usr/local/lib/python2.7/dist-packages/django/utils/html'
p119
sg12
g13
(g14
g15
NtRp120
(dp121
g18
I1
sg19
I0
sg20
I172
sg21
I0
sg22
I0
sg23
I118
sg24
I0
sbssg25
S"*\x06\x8c\xaa\x0b\x89\x94\xc8\x95\xd4'E&m)\xc5"
p122
ssS'_usr_local_lib_python2_7_dist-packages_django_db_models_sql_compiler'
p123
(dp124
g6
(dp125
g8
S'_usr_local_lib_python2_7_dist-packages_django_db_models_sql_compiler.html'
p126
sg10
S'/usr/local/lib/python2.7/dist-packages/django/db/models/sql/compiler'
p127
sg12
g13
(g14
g15
NtRp128
(dp129
g18
I1
sg19
I0
sg20
I674
sg21
I0
sg22
I0
sg23
I370
sg24
I0
sbssg25
S'E\xcb\x18\xb0*\xbbS\x99{\xe7\x86\xa5\xc90o{'
p130
ssS'_usr_local_lib_python2_7_dist-packages_django_utils_baseconv'
p131
(dp132
g6
(dp133
g8
S'_usr_local_lib_python2_7_dist-packages_django_utils_baseconv.html'
p134
sg10
S'/usr/local/lib/python2.7/dist-packages/django/utils/baseconv'
p135
sg12
g13
(g14
g15
NtRp136
(dp137
g18
I1
sg19
I0
sg20
I48
sg21
I0
sg22
I0
sg23
I25
sg24
I0
sbssg25
S'\xb2\x0b\x94|\xcd\x96\xf2\xa9r)h\x95\xb7\x97B\xe5'
p138
ssS'persona_views'
p139
(dp140
g6
(dp141
g8
S'persona_views.html'
p142
sg10
S'persona/views'
p143
sg12
g13
(g14
g15
NtRp144
(dp145
g18
I1
sg19
I0
sg20
I7
sg21
I0
sg22
I0
sg23
I0
sg24
I0
sbssg25
S"\xbb\x11\xcd'\xd0\x92\x9ef\xfe\xcfCy#\xcdJ\xde"
p146
ssS'_usr_local_lib_python2_7_dist-packages_django_utils_crypto'
p147
(dp148
g6
(dp149
g8
S'_usr_local_lib_python2_7_dist-packages_django_utils_crypto.html'
p150
sg10
S'/usr/local/lib/python2.7/dist-packages/django/utils/crypto'
p151
sg12
g13
(g14
g15
NtRp152
(dp153
g18
I1
sg19
I0
sg20
I75
sg21
I0
sg22
I0
sg23
I51
sg24
I0
sbssg25
S'\x96\x04\xc4\xa1\xe2\xa7\xf9\x00\xdeo\x93\xc7\x9a\x83\xbfV'
p154
ssS'_usr_local_lib_python2_7_dist-packages_django_core_files_temp'
p155
(dp156
g6
(dp157
g8
S'_usr_local_lib_python2_7_dist-packages_django_core_files_temp.html'
p158
sg10
S'/usr/local/lib/python2.7/dist-packages/django/core/files/temp'
p159
sg12
g13
(g14
g15
NtRp160
(dp161
g18
I1
sg19
I0
sg20
I30
sg21
I0
sg22
I0
sg23
I23
sg24
I0
sbssg25
S'\xc4d \xa0\xbeQ\xd5*\xabLh~a\xc1\x96\x02'
p162
ssS'_usr_local_lib_python2_7_dist-packages_django_dispatch_saferef'
p163
(dp164
g6
(dp165
g8
S'_usr_local_lib_python2_7_dist-packages_django_dispatch_saferef.html'
p166
sg10
S'/usr/local/lib/python2.7/dist-packages/django/dispatch/saferef'
p167
sg12
g13
(g14
g15
NtRp168
(dp169
g18
I1
sg19
I0
sg20
I84
sg21
I0
sg22
I0
sg23
I24
sg24
I0
sbssg25
S'\xd3\xb4\xfa\x16\x85Qf\xd0\xed\x1a\x8b\xa6\x9d\x01\xc8\xc4'
p170
ssS'_usr_local_lib_python2_7_dist-packages_django_contrib_staticfiles_handlers'
p171
(dp172
g6
(dp173
g8
S'_usr_local_lib_python2_7_dist-packages_django_contrib_staticfiles_handlers.html'
p174
sg10
S'/usr/local/lib/python2.7/dist-packages/django/contrib/staticfiles/handlers'
p175
sg12
g13
(g14
g15
NtRp176
(dp177
g18
I1
sg19
I0
sg20
I41
sg21
I0
sg22
I0
sg23
I25
sg24
I0
sbssg25
S'\x87!\xc9\xdb\xec-n\xbb}}k\x98\xe6\xfd\xa5\xbc'
p178
ssS'_usr_local_lib_python2_7_dist-packages_django_db_models_sql_subqueries'
p179
(dp180
g6
(dp181
g8
S'_usr_local_lib_python2_7_dist-packages_django_db_models_sql_subqueries.html'
p182
sg10
S'/usr/local/lib/python2.7/dist-packages/django/db/models/sql/subqueries'
p183
sg12
g13
(g14
g15
NtRp184
(dp185
g18
I1
sg19
I0
sg20
I156
sg21
I0
sg22
I0
sg23
I99
sg24
I0
sbssg25
S'\xc1\x9a\xd9A\x11\rL#g h\x03\xba\xc9\xe7\xf6'
p186
ssS'_usr_local_lib_python2_7_dist-packages_django_test_client'
p187
(dp188
g6
(dp189
g8
S'_usr_local_lib_python2_7_dist-packages_django_test_client.html'
p190
sg10
S'/usr/local/lib/python2.7/dist-packages/django/test/client'
p191
sg12
g13
(g14
g15
NtRp192
(dp193
g18
I1
sg19
I0
sg20
I301
sg21
I0
sg22
I0
sg23
I162
sg24
I0
sbssg25
S'\t\x99\xf27\xe5\xea\x9e\x9e\xfb\xbd\xa7\x95\xcc\x8a\x81%'
p194
ssS'_usr_local_lib_python2_7_dist-packages_django_core_management_base'
p195
(dp196
g6
(dp197
g8
S'_usr_local_lib_python2_7_dist-packages_django_core_management_base.html'
p198
sg10
S'/usr/local/lib/python2.7/dist-packages/django/core/management/base'
p199
sg12
g13
(g14
g15
NtRp200
(dp201
g18
I1
sg19
I0
sg20
I144
sg21
I0
sg22
I0
sg23
I52
sg24
I0
sbssg25
S"q'$p\x04\x8b\x05\xf3Z \xf0\x18I\xd1\xee_"
p202
ssS'_usr_local_lib_python2_7_dist-packages_django_utils_deprecation'
p203
(dp204
g6
(dp205
g8
S'_usr_local_lib_python2_7_dist-packages_django_utils_deprecation.html'
p206
sg10
S'/usr/local/lib/python2.7/dist-packages/django/utils/deprecation'
p207
sg12
g13
(g14
g15
NtRp208
(dp209
g18
I1
sg19
I0
sg20
I33
sg21
I0
sg22
I0
sg23
I5
sg24
I0
sbssg25
S'\xb0m\xeeM]Da\xb8\xbcCu\x16n\xbe\xc0\xaa'
p210
ssS'_usr_local_lib_python2_7_dist-packages_django_core_cache_backends_base'
p211
(dp212
g6
(dp213
g8
S'_usr_local_lib_python2_7_dist-packages_django_core_cache_backends_base.html'
p214
sg10
S'/usr/local/lib/python2.7/dist-packages/django/core/cache/backends/base'
p215
sg12
g13
(g14
g15
NtRp216
(dp217
g18
I1
sg19
I0
sg20
I100
sg21
I0
sg22
I0
sg23
I52
sg24
I0
sbssg25
S'\x8b\x9e\xfd~;\x7f\xa1\xed\xee\xb6V\x9e\xff\xd0\x82\xed'
p218
ssS'_usr_local_lib_python2_7_dist-packages_django_utils_cache'
p219
(dp220
g6
(dp221
g8
S'_usr_local_lib_python2_7_dist-packages_django_utils_cache.html'
p222
sg10
S'/usr/local/lib/python2.7/dist-packages/django/utils/cache'
p223
sg12
g13
(g14
g15
NtRp224
(dp225
g18
I1
sg19
I0
sg20
I133
sg21
I0
sg22
I0
sg23
I109
sg24
I0
sbssg25
S"\x8aY\xc6a\xa1\xab'\x075\xea\x91}\xb6\xf1\x98U"
p226
ssS'_usr_local_lib_python2_7_dist-packages_django_contrib_sites_models'
p227
(dp228
g6
(dp229
g8
S'_usr_local_lib_python2_7_dist-packages_django_contrib_sites_models.html'
p230
sg10
S'/usr/local/lib/python2.7/dist-packages/django/contrib/sites/models'
p231
sg12
g13
(g14
g15
NtRp232
(dp233
g18
I1
sg19
I0
sg20
I65
sg21
I0
sg22
I0
sg23
I32
sg24
I0
sbssg25
S"@\x8cw\xac\x08\xbd}\xe7\x16](\xb5'\x00\x04l"
p234
ssS'_usr_local_lib_python2_7_dist-packages_django_conf_locale_es_formats'
p235
(dp236
g6
(dp237
g8
S'_usr_local_lib_python2_7_dist-packages_django_conf_locale_es_formats.html'
p238
sg10
S'/usr/local/lib/python2.7/dist-packages/django/conf/locale/es/formats'
p239
sg12
g13
(g14
g15
NtRp240
(dp241
g18
I1
sg19
I0
sg20
I14
sg21
I0
sg22
I0
sg23
I0
sg24
I0
sbssg25
S'_\x7f\xcc\n\x91\x8b\x00\x9cF.\xe2`*\x95f\x1f'
p242
ssS'_usr_local_lib_python2_7_dist-packages_django_contrib_auth_models'
p243
(dp244
g6
(dp245
g8
S'_usr_local_lib_python2_7_dist-packages_django_contrib_auth_models.html'
p246
sg10
S'/usr/local/lib/python2.7/dist-packages/django/contrib/auth/models'
p247
sg12
g13
(g14
g15
NtRp248
(dp249
g18
I1
sg19
I0
sg20
I260
sg21
I0
sg22
I0
sg23
I116
sg24
I0
sbssg25
S'\xec\xb9\xecT!\xa5\x0b\x06\xe1\t\x91k\xa0\xa9\xdd\xef'
p250
ssS'_usr_local_lib_python2_7_dist-packages_django_template_smartif'
p251
(dp252
g6
(dp253
g8
S'_usr_local_lib_python2_7_dist-packages_django_template_smartif.html'
p254
sg10
S'/usr/local/lib/python2.7/dist-packages/django/template/smartif'
p255
sg12
g13
(g14
g15
NtRp256
(dp257
g18
I1
sg19
I0
sg20
I104
sg21
I0
sg22
I0
sg23
I32
sg24
I0
sbssg25
S'\x1b"\xa1\xd6zZ\x8e\x98\xd6\xad\xf3\xc2\xe2>`\x89'
p258
ssS'_usr_local_lib_python2_7_dist-packages_django_utils_timezone'
p259
(dp260
g6
(dp261
g8
S'_usr_local_lib_python2_7_dist-packages_django_utils_timezone.html'
p262
sg10
S'/usr/local/lib/python2.7/dist-packages/django/utils/timezone'
p263
sg12
g13
(g14
g15
NtRp264
(dp265
g18
I1
sg19
I0
sg20
I124
sg21
I0
sg22
I0
sg23
I77
sg24
I0
sbssg25
S"\xb5\xb7B\xce\xe2\x96A\x9ay\x7f\x95\x10+\x0f'f"
p266
ssS'_usr_local_lib_python2_7_dist-packages_django_core_files___init__'
p267
(dp268
g6
(dp269
g8
S'_usr_local_lib_python2_7_dist-packages_django_core_files___init__.html'
p270
sg10
S'/usr/local/lib/python2.7/dist-packages/django/core/files/__init__'
p271
sg12
g13
(g14
g15
NtRp272
(dp273
g18
I1
sg19
I0
sg20
I1
sg21
I0
sg22
I0
sg23
I0
sg24
I0
sbssg25
S"\xa1\xbfiA'\x85B\x1e\xd8\xe0\x91\xe3\xf7\x86\x81\xb2"
p274
ssS'_usr_local_lib_python2_7_dist-packages_django_contrib_sessions___init__'
p275
(dp276
g6
(dp277
g8
S'_usr_local_lib_python2_7_dist-packages_django_contrib_sessions___init__.html'
p278
sg10
S'/usr/local/lib/python2.7/dist-packages/django/contrib/sessions/__init__'
p279
sg12
g13
(g14
g15
NtRp280
(dp281
g18
I1
sg19
I0
sg20
I0
sg21
I0
sg22
I0
sg23
I0
sg24
I0
sbssg25
S'\xb0\xc8pN\xaf>\xa0\xbaz\x144\xe0A9\xb8?'
p282
ssS'_usr_local_lib_python2_7_dist-packages_django_core_mail_utils'
p283
(dp284
g6
(dp285
g8
S'_usr_local_lib_python2_7_dist-packages_django_core_mail_utils.html'
p286
sg10
S'/usr/local/lib/python2.7/dist-packages/django/core/mail/utils'
p287
sg12
g13
(g14
g15
NtRp288
(dp289
g18
I1
sg19
I0
sg20
I9
sg21
I0
sg22
I0
sg23
I4
sg24
I0
sbssg25
S'q\x8f\x86\xa8\x10\xa1\x04\x98^\x0e\xe8\x93\xb7X\xaan'
p290
ssS'_usr_local_lib_python2_7_dist-packages_django_db_models_aggregates'
p291
(dp292
g6
(dp293
g8
S'_usr_local_lib_python2_7_dist-packages_django_db_models_aggregates.html'
p294
sg10
S'/usr/local/lib/python2.7/dist-packages/django/db/models/aggregates'
p295
sg12
g13
(g14
g15
NtRp296
(dp297
g18
I1
sg19
I0
sg20
I31
sg21
I0
sg22
I0
sg23
I7
sg24
I0
sbssg25
S"-d\xbd\xfb'4\x19h\xe3\x96\te\x1d\xf4*\xe1"
p298
ssS'Soft_Clei_urls'
p299
(dp300
g6
(dp301
g8
S'Soft_Clei_urls.html'
p302
sg10
S'Soft_Clei/urls'
p303
sg12
g13
(g14
g15
NtRp304
(dp305
g18
I1
sg19
I0
sg20
I7
sg21
I0
sg22
I0
sg23
I0
sg24
I0
sbssg25
S'X\x9eOE\xc2\xb9\xc5O\xe4\x8b\xaf\xc4?\xfe\x9e\xe8'
p306
ssS'_usr_local_lib_python2_7_dist-packages_django_core_files_move'
p307
(dp308
g6
(dp309
g8
S'_usr_local_lib_python2_7_dist-packages_django_core_files_move.html'
p310
sg10
S'/usr/local/lib/python2.7/dist-packages/django/core/files/move'
p311
sg12
g13
(g14
g15
NtRp312
(dp313
g18
I1
sg19
I0
sg20
I47
sg21
I0
sg22
I0
sg23
I40
sg24
I0
sbssg25
S'\xaa\xe4\xf1i:}\xa5\xd8\\\xc6\xc0\x1fv.[\xbd'
p314
ssS'_usr_local_lib_python2_7_dist-packages_django_core_management_commands_syncdb'
p315
(dp316
g6
(dp317
g8
S'_usr_local_lib_python2_7_dist-packages_django_core_management_commands_syncdb.html'
p318
sg10
S'/usr/local/lib/python2.7/dist-packages/django/core/management/commands/syncdb'
p319
sg12
g13
(g14
g15
NtRp320
(dp321
g18
I1
sg19
I0
sg20
I100
sg21
I0
sg22
I0
sg23
I18
sg24
I0
sbssg25
S'\xb7\x8c\xec"\xa8=\xe1\xbe+\xd9\xee\xa8@\xccuE'
p322
ssS'manage'
p323
(dp324
g6
(dp325
g8
S'manage.html'
p326
sg10
g323
sg12
g13
(g14
g15
NtRp327
(dp328
g18
I1
sg19
I0
sg20
I6
sg21
I0
sg22
I0
sg23
I0
sg24
I0
sbssg25
S'\xd2Z\x16\x8a\xbb\x11\x9c\xd4vBOdmR\xff\xe3'
p329
ssS'articulo_admin'
p330
(dp331
g6
(dp332
g8
S'articulo_admin.html'
p333
sg10
S'articulo/admin'
p334
sg12
g13
(g14
g15
NtRp335
(dp336
g18
I1
sg19
I0
sg20
I4
sg21
I0
sg22
I0
sg23
I0
sg24
I0
sbssg25
S'[\xe3\x89\xf6j\xb1*\x1e\x94\x01T\xcd7\xf7Z\xb9'
p337
ssS'_usr_local_lib_python2_7_dist-packages_django_template_debug'
p338
(dp339
g6
(dp340
g8
S'_usr_local_lib_python2_7_dist-packages_django_template_debug.html'
p341
sg10
S'/usr/local/lib/python2.7/dist-packages/django/template/debug'
p342
sg12
g13
(g14
g15
NtRp343
(dp344
g18
I1
sg19
I0
sg20
I81
sg21
I0
sg22
I0
sg23
I29
sg24
I0
sbssg25
S"\xb2\x12\x1f'\x9b\x8c}2\xa4\xbeX\xe4<\re\xa2"
p345
ssS'_usr_local_lib_python2_7_dist-packages_django_middleware___init__'
p346
(dp347
g6
(dp348
g8
S'_usr_local_lib_python2_7_dist-packages_django_middleware___init__.html'
p349
sg10
S'/usr/local/lib/python2.7/dist-packages/django/middleware/__init__'
p350
sg12
g13
(g14
g15
NtRp351
(dp352
g18
I1
sg19
I0
sg20
I0
sg21
I0
sg22
I0
sg23
I0
sg24
I0
sbssg25
S'\xb0\xc8pN\xaf>\xa0\xbaz\x144\xe0A9\xb8?'
p353
ssS'_usr_local_lib_python2_7_dist-packages_django_contrib_sessions_serializers'
p354
(dp355
g6
(dp356
g8
S'_usr_local_lib_python2_7_dist-packages_django_contrib_sessions_serializers.html'
p357
sg10
S'/usr/local/lib/python2.7/dist-packages/django/contrib/sessions/serializers'
p358
sg12
g13
(g14
g15
NtRp359
(dp360
g18
I1
sg19
I0
sg20
I11
sg21
I0
sg22
I0
sg23
I4
sg24
I0
sbssg25
S'\x1a\xc1\x8d\x0c\x88\xd7#u(\xb4\x10\xcbur\x7fC'
p361
ssS'_usr_local_lib_python2_7_dist-packages_django_contrib_admin_util'
p362
(dp363
g6
(dp364
g8
S'_usr_local_lib_python2_7_dist-packages_django_contrib_admin_util.html'
p365
sg10
S'/usr/local/lib/python2.7/dist-packages/django/contrib/admin/util'
p366
sg12
g13
(g14
g15
NtRp367
(dp368
g18
I1
sg19
I0
sg20
I284
sg21
I0
sg22
I0
sg23
I239
sg24
I0
sbssg25
S'\xff\xce\x9f\xa3\xda9m\r?\x8d\xceM*\x13F\xe4'
p369
ssS'_usr_local_lib_python2_7_dist-packages_django_core_handlers_base'
p370
(dp371
g6
(dp372
g8
S'_usr_local_lib_python2_7_dist-packages_django_core_handlers_base.html'
p373
sg10
S'/usr/local/lib/python2.7/dist-packages/django/core/handlers/base'
p374
sg12
g13
(g14
g15
NtRp375
(dp376
g18
I1
sg19
I0
sg20
I159
sg21
I0
sg22
I0
sg23
I72
sg24
I0
sbssg25
S'\xd4#E\xbb\x1e\xe3\x04\x82\xee1\xb8\n\xe0\xe6\x9b\xa2'
p377
ssS'_usr_local_lib_python2_7_dist-packages_django_core_serializers_base'
p378
(dp379
g6
(dp380
g8
S'_usr_local_lib_python2_7_dist-packages_django_core_serializers_base.html'
p381
sg10
S'/usr/local/lib/python2.7/dist-packages/django/core/serializers/base'
p382
sg12
g13
(g14
g15
NtRp383
(dp384
g18
I1
sg19
I0
sg20
I76
sg21
I0
sg22
I0
sg23
I49
sg24
I0
sbssg25
S'\x89\x12\xc1\xd6\x11\xe9s\xbe\xf3\x85\xca\xbe\x02\xb4\x00\xf6'
p385
ssS'_usr_local_lib_python2_7_dist-packages_django_contrib_contenttypes_management'
p386
(dp387
g6
(dp388
g8
S'_usr_local_lib_python2_7_dist-packages_django_contrib_contenttypes_management.html'
p389
sg10
S'/usr/local/lib/python2.7/dist-packages/django/contrib/contenttypes/management'
p390
sg12
g13
(g14
g15
NtRp391
(dp392
g18
I1
sg19
I0
sg20
I44
sg21
I0
sg22
I0
sg23
I19
sg24
I0
sbssg25
S'\xcb\x00\x18\x9d\xb0\xd5\xaa\xe4\x90+\xbe\x18^\x11\x8cs'
p393
ssS'_usr_local_lib_python2_7_dist-packages_django_contrib_messages___init__'
p394
(dp395
g6
(dp396
g8
S'_usr_local_lib_python2_7_dist-packages_django_contrib_messages___init__.html'
p397
sg10
S'/usr/local/lib/python2.7/dist-packages/django/contrib/messages/__init__'
p398
sg12
g13
(g14
g15
NtRp399
(dp400
g18
I1
sg19
I0
sg20
I3
sg21
I0
sg22
I0
sg23
I0
sg24
I0
sbssg25
S'\x01~\xb7\xc9ZD\xe5N\xc3\x01\xc2\x94u\x0b`\x9e'
p401
ssS'asistente_admin'
p402
(dp403
g6
(dp404
g8
S'asistente_admin.html'
p405
sg10
S'asistente/admin'
p406
sg12
g13
(g14
g15
NtRp407
(dp408
g18
I1
sg19
I0
sg20
I6
sg21
I0
sg22
I0
sg23
I0
sg24
I0
sbssg25
S'j7\x1a\x88F\xf4U\xe1\xc1\xac\xf8o\x0f`\x97;'
p409
ssS'_usr_local_lib_python2_7_dist-packages_django_core_signing'
p410
(dp411
g6
(dp412
g8
S'_usr_local_lib_python2_7_dist-packages_django_core_signing.html'
p413
sg10
S'/usr/local/lib/python2.7/dist-packages/django/core/signing'
p414
sg12
g13
(g14
g15
NtRp415
(dp416
g18
I1
sg19
I0
sg20
I86
sg21
I0
sg22
I0
sg23
I54
sg24
I0
sbssg25
S'\x7fJ\x05\xed%e\x0eJ(e\x07_\xd8\x91z\xb0'
p417
ssS'asistente_models'
p418
(dp419
g6
(dp420
g8
S'asistente_models.html'
p421
sg10
S'asistente/models'
p422
sg12
g13
(g14
g15
NtRp423
(dp424
g18
I1
sg19
I0
sg20
I28
sg21
I0
sg22
I0
sg23
I4
sg24
I0
sbssg25
S'\xa48\xc6\xf7S}6\x1c\x84\xf2Sj\x8aG(\x9f'
p425
ssS'_usr_local_lib_python2_7_dist-packages_django_core_management_color'
p426
(dp427
g6
(dp428
g8
S'_usr_local_lib_python2_7_dist-packages_django_core_management_color.html'
p429
sg10
S'/usr/local/lib/python2.7/dist-packages/django/core/management/color'
p430
sg12
g13
(g14
g15
NtRp431
(dp432
g18
I1
sg19
I0
sg20
I28
sg21
I0
sg22
I0
sg23
I3
sg24
I0
sbssg25
S'\x1f\x18m\xdf\x9b&\x90\xbe\xf5\x15C\x10\x8e\x16\xcd\xc4'
p433
ssS'_usr_local_lib_python2_7_dist-packages_django_core_exceptions'
p434
(dp435
g6
(dp436
g8
S'_usr_local_lib_python2_7_dist-packages_django_core_exceptions.html'
p437
sg10
S'/usr/local/lib/python2.7/dist-packages/django/core/exceptions'
p438
sg12
g13
(g14
g15
NtRp439
(dp440
g18
I1
sg19
I0
sg20
I76
sg21
I0
sg22
I0
sg23
I40
sg24
I0
sbssg25
S'\xbe\xe7B\xa1\x90D\xe8\x88s\xca<\x87\xc5\xb3\xcf\xee'
p441
ssS'_usr_local_lib_python2_7_dist-packages_django_core_serializers_xml_serializer'
p442
(dp443
g6
(dp444
g8
S'_usr_local_lib_python2_7_dist-packages_django_core_serializers_xml_serializer.html'
p445
sg10
S'/usr/local/lib/python2.7/dist-packages/django/core/serializers/xml_serializer'
p446
sg12
g13
(g14
g15
NtRp447
(dp448
g18
I1
sg19
I0
sg20
I213
sg21
I0
sg22
I0
sg23
I167
sg24
I0
sbssg25
S';5v\xbb&q\xd0\x17t\xcc\xcdk\x89-\x7f\xb4'
p449
ssS'_usr_local_lib_python2_7_dist-packages_django_utils_version'
p450
(dp451
g6
(dp452
g8
S'_usr_local_lib_python2_7_dist-packages_django_utils_version.html'
p453
sg10
S'/usr/local/lib/python2.7/dist-packages/django/utils/version'
p454
sg12
g13
(g14
g15
NtRp455
(dp456
g18
I1
sg19
I0
sg20
I29
sg21
I0
sg22
I0
sg23
I15
sg24
I0
sbssg25
S'\xba\xcb\xe5|\x18\xbcUd\xd6q\x19\xc9p-\xb6\xb2'
p457
ssS'_usr_local_lib_python2_7_dist-packages_django_contrib_admin_widgets'
p458
(dp459
g6
(dp460
g8
S'_usr_local_lib_python2_7_dist-packages_django_contrib_admin_widgets.html'
p461
sg10
S'/usr/local/lib/python2.7/dist-packages/django/contrib/admin/widgets'
p462
sg12
g13
(g14
g15
NtRp463
(dp464
g18
I1
sg19
I0
sg20
I218
sg21
I0
sg22
I0
sg23
I149
sg24
I0
sbssg25
S'F\xa4\xc4\xa6\xf9\x07z}\xa1\x11\x17\x85\xf7G\x05^'
p465
ssS'_usr_local_lib_python2_7_dist-packages_django_http_cookie'
p466
(dp467
g6
(dp468
g8
S'_usr_local_lib_python2_7_dist-packages_django_http_cookie.html'
p469
sg10
S'/usr/local/lib/python2.7/dist-packages/django/http/cookie'
p470
sg12
g13
(g14
g15
NtRp471
(dp472
g18
I1
sg19
I0
sg20
I53
sg21
I0
sg22
I0
sg23
I33
sg24
I0
sbssg25
S"@'\xd2W\xd0?'B\x18c\xa0\x9a\x08\x8b\xea\x96"
p473
ssS'_usr_local_lib_python2_7_dist-packages_django_middleware_clickjacking'
p474
(dp475
g6
(dp476
g8
S'_usr_local_lib_python2_7_dist-packages_django_middleware_clickjacking.html'
p477
sg10
S'/usr/local/lib/python2.7/dist-packages/django/middleware/clickjacking'
p478
sg12
g13
(g14
g15
NtRp479
(dp480
g18
I1
sg19
I0
sg20
I11
sg21
I0
sg22
I0
sg23
I2
sg24
I0
sbssg25
S'\x898\xbd\xe5\x81\xd9\xe5\xee\xd1\xef-H\xcbx\xf8\xd7'
p481
ssS'_usr_local_lib_python2_7_dist-packages_django_core_handlers___init__'
p482
(dp483
g6
(dp484
g8
S'_usr_local_lib_python2_7_dist-packages_django_core_handlers___init__.html'
p485
sg10
S'/usr/local/lib/python2.7/dist-packages/django/core/handlers/__init__'
p486
sg12
g13
(g14
g15
NtRp487
(dp488
g18
I1
sg19
I0
sg20
I0
sg21
I0
sg22
I0
sg23
I0
sg24
I0
sbssg25
S'\xb0\xc8pN\xaf>\xa0\xbaz\x144\xe0A9\xb8?'
p489
ssS'_usr_local_lib_python2_7_dist-packages_django_db_models_expressions'
p490
(dp491
g6
(dp492
g8
S'_usr_local_lib_python2_7_dist-packages_django_db_models_expressions.html'
p493
sg10
S'/usr/local/lib/python2.7/dist-packages/django/db/models/expressions'
p494
sg12
g13
(g14
g15
NtRp495
(dp496
g18
I1
sg19
I0
sg20
I94
sg21
I0
sg22
I0
sg23
I50
sg24
I0
sbssg25
S'\x9aUWn\x96\xeb\xb3o\n\x8ac}\x99[\xc5\xd2'
p497
ssS'_usr_local_lib_python2_7_dist-packages_django_contrib_staticfiles___init__'
p498
(dp499
g6
(dp500
g8
S'_usr_local_lib_python2_7_dist-packages_django_contrib_staticfiles___init__.html'
p501
sg10
S'/usr/local/lib/python2.7/dist-packages/django/contrib/staticfiles/__init__'
p502
sg12
g13
(g14
g15
NtRp503
(dp504
g18
I1
sg19
I0
sg20
I0
sg21
I0
sg22
I0
sg23
I0
sg24
I0
sbssg25
S'\xb0\xc8pN\xaf>\xa0\xbaz\x144\xe0A9\xb8?'
p505
ssS'_usr_local_lib_python2_7_dist-packages_django_contrib_sessions_management___init__'
p506
(dp507
g6
(dp508
g8
S'_usr_local_lib_python2_7_dist-packages_django_contrib_sessions_management___init__.html'
p509
sg10
S'/usr/local/lib/python2.7/dist-packages/django/contrib/sessions/management/__init__'
p510
sg12
g13
(g14
g15
NtRp511
(dp512
g18
I1
sg19
I0
sg20
I0
sg21
I0
sg22
I0
sg23
I0
sg24
I0
sbssg25
S'\xb0\xc8pN\xaf>\xa0\xbaz\x144\xe0A9\xb8?'
p513
ssS'_usr_local_lib_python2_7_dist-packages_django_contrib_admin_validation'
p514
(dp515
g6
(dp516
g8
S'_usr_local_lib_python2_7_dist-packages_django_contrib_admin_validation.html'
p517
sg10
S'/usr/local/lib/python2.7/dist-packages/django/contrib/admin/validation'
p518
sg12
g13
(g14
g15
NtRp519
(dp520
g18
I1
sg19
I0
sg20
I254
sg21
I0
sg22
I0
sg23
I209
sg24
I0
sbssg25
S'0\xa19\xd4\x95\x87\xff,\x0e\xb2\xf4\x05\xcb\xdfDJ'
p521
ssS'_usr_local_lib_python2_7_dist-packages_django_test_utils'
p522
(dp523
g6
(dp524
g8
S'_usr_local_lib_python2_7_dist-packages_django_test_utils.html'
p525
sg10
S'/usr/local/lib/python2.7/dist-packages/django/test/utils'
p526
sg12
g13
(g14
g15
NtRp527
(dp528
g18
I1
sg19
I0
sg20
I265
sg21
I0
sg22
I0
sg23
I170
sg24
I0
sbssg25
S'0\x1a\xf1[#~{\x9eo&\x89am\xf9r\x98'
p529
ssS'_usr_local_lib_python2_7_dist-packages_django_db_backends_signals'
p530
(dp531
g6
(dp532
g8
S'_usr_local_lib_python2_7_dist-packages_django_db_backends_signals.html'
p533
sg10
S'/usr/local/lib/python2.7/dist-packages/django/db/backends/signals'
p534
sg12
g13
(g14
g15
NtRp535
(dp536
g18
I1
sg19
I0
sg20
I2
sg21
I0
sg22
I0
sg23
I0
sg24
I0
sbssg25
S'\xac\xe8\xc0\xe9\x8a\xd9d\xcc\x03\xc1\x89\xd4\xde\xa8x<'
p537
ssS'_usr_local_lib_python2_7_dist-packages_django_contrib_staticfiles_storage'
p538
(dp539
g6
(dp540
g8
S'_usr_local_lib_python2_7_dist-packages_django_contrib_staticfiles_storage.html'
p541
sg10
S'/usr/local/lib/python2.7/dist-packages/django/contrib/staticfiles/storage'
p542
sg12
g13
(g14
g15
NtRp543
(dp544
g18
I1
sg19
I0
sg20
I180
sg21
I0
sg22
I0
sg23
I134
sg24
I0
sbssg25
S'\x80>\xf0(\x86\xd5W4>D\xbe\xf4<\x87"\xa3'
p545
ssS'_usr_local_lib_python2_7_dist-packages_django_db_transaction'
p546
(dp547
g6
(dp548
g8
S'_usr_local_lib_python2_7_dist-packages_django_db_transaction.html'
p549
sg10
S'/usr/local/lib/python2.7/dist-packages/django/db/transaction'
p550
sg12
g13
(g14
g15
NtRp551
(dp552
g18
I1
sg19
I0
sg20
I188
sg21
I0
sg22
I0
sg23
I103
sg24
I0
sbssg25
S'\x90OQ\xb9N*\xf5\x10\x91\x06pyg\x91\x1a\xb5'
p553
ssS'_usr_local_lib_python2_7_dist-packages_django_template_loader'
p554
(dp555
g6
(dp556
g8
S'_usr_local_lib_python2_7_dist-packages_django_template_loader.html'
p557
sg10
S'/usr/local/lib/python2.7/dist-packages/django/template/loader'
p558
sg12
g13
(g14
g15
NtRp559
(dp560
g18
I1
sg19
I0
sg20
I97
sg21
I0
sg22
I0
sg23
I33
sg24
I0
sbssg25
S'\xbe\xd7\xd1\xc5\x04\x81\xe9CGG\xbd\xa9\xe8\xcc\xacv'
p561
ssS'evento_tests'
p562
(dp563
S'index'
p564
(dp565
S'html_filename'
p566
S'evento_tests.html'
p567
sS'name'
p568
S'evento/tests'
p569
sS'nums'
p570
g13
(g14
g15
NtRp571
(dp572
g18
I1
sg19
I0
sg20
I1
sg21
I0
sg22
I0
sg23
I0
sg24
I0
sbssS'hash'
p573
S'\x97e\xc4\xf4\xb6\x04\xfd<\xae\xb2Y\x0e\xa0+\xf2\xcc'
p574
ssS'_usr_local_lib_python2_7_dist-packages_django_core_files_locks'
p575
(dp576
g6
(dp577
g8
S'_usr_local_lib_python2_7_dist-packages_django_core_files_locks.html'
p578
sg10
S'/usr/local/lib/python2.7/dist-packages/django/core/files/locks'
p579
sg12
g13
(g14
g15
NtRp580
(dp581
g18
I1
sg19
I0
sg20
I40
sg21
I0
sg22
I0
sg23
I23
sg24
I0
sbssg25
S'uL\xa53\xd2\xe2\x86Ew[\xedD|\xbf\x81\xcc'
p582
ssS'_usr_local_lib_python2_7_dist-packages_django_forms_widgets'
p583
(dp584
g6
(dp585
g8
S'_usr_local_lib_python2_7_dist-packages_django_forms_widgets.html'
p586
sg10
S'/usr/local/lib/python2.7/dist-packages/django/forms/widgets'
p587
sg12
g13
(g14
g15
NtRp588
(dp589
g18
I1
sg19
I0
sg20
I522
sg21
I0
sg22
I0
sg23
I323
sg24
I0
sbssg25
S'\xf3A\xe6z-\x8du\xb7\xd4\x0fS\xce\x15\x8d\x8bK'
p590
ssS'_usr_local_lib_python2_7_dist-packages_django_core_cache_backends___init__'
p591
(dp592
g6
(dp593
g8
S'_usr_local_lib_python2_7_dist-packages_django_core_cache_backends___init__.html'
p594
sg10
S'/usr/local/lib/python2.7/dist-packages/django/core/cache/backends/__init__'
p595
sg12
g13
(g14
g15
NtRp596
(dp597
g18
I1
sg19
I0
sg20
I0
sg21
I0
sg22
I0
sg23
I0
sg24
I0
sbssg25
S'\xb0\xc8pN\xaf>\xa0\xbaz\x144\xe0A9\xb8?'
p598
ssS'_usr_local_lib_python2_7_dist-packages_django_core_mail___init__'
p599
(dp600
g6
(dp601
g8
S'_usr_local_lib_python2_7_dist-packages_django_core_mail___init__.html'
p602
sg10
S'/usr/local/lib/python2.7/dist-packages/django/core/mail/__init__'
p603
sg12
g13
(g14
g15
NtRp604
(dp605
g18
I1
sg19
I0
sg20
I29
sg21
I0
sg22
I0
sg23
I19
sg24
I0
sbssg25
S'[\x81\x80}O\x93X\xe5\x17\xa2\xaeS\x87\x14\xcba'
p606
ssS'_usr_local_lib_python2_7_dist-packages_django_template_base'
p607
(dp608
g6
(dp609
g8
S'_usr_local_lib_python2_7_dist-packages_django_template_base.html'
p610
sg10
S'/usr/local/lib/python2.7/dist-packages/django/template/base'
p611
sg12
g13
(g14
g15
NtRp612
(dp613
g18
I1
sg19
I0
sg20
I787
sg21
I0
sg22
I0
sg23
I367
sg24
I0
sbssg25
S'(u\x08e\xf2\x150V\x00=\x13\x1eXNO\x80'
p614
ssS'_usr_local_lib_python2_7_dist-packages_django_contrib_admin_actions'
p615
(dp616
g6
(dp617
g8
S'_usr_local_lib_python2_7_dist-packages_django_contrib_admin_actions.html'
p618
sg10
S'/usr/local/lib/python2.7/dist-packages/django/contrib/admin/actions'
p619
sg12
g13
(g14
g15
NtRp620
(dp621
g18
I1
sg19
I0
sg20
I35
sg21
I0
sg22
I0
sg23
I25
sg24
I0
sbssg25
S'\x9ei\\\xe4|g\xf8,\xe7\xf3=\x99\xe8\xced\xd8'
p622
ssS'_usr_local_lib_python2_7_dist-packages_django_utils_module_loading'
p623
(dp624
g6
(dp625
g8
S'_usr_local_lib_python2_7_dist-packages_django_utils_module_loading.html'
p626
sg10
S'/usr/local/lib/python2.7/dist-packages/django/utils/module_loading'
p627
sg12
g13
(g14
g15
NtRp628
(dp629
g18
I1
sg19
I0
sg20
I66
sg21
I0
sg22
I0
sg23
I34
sg24
I0
sbssg25
S'\x01\x88\x0f<\xd8\x1b3z\xe6\xd3~\xd2\x8fF\xbfD'
p630
ssS'_usr_local_lib_python2_7_dist-packages_django_forms_util'
p631
(dp632
g6
(dp633
g8
S'_usr_local_lib_python2_7_dist-packages_django_forms_util.html'
p634
sg10
S'/usr/local/lib/python2.7/dist-packages/django/forms/util'
p635
sg12
g13
(g14
g15
NtRp636
(dp637
g18
I1
sg19
I0
sg20
I47
sg21
I0
sg22
I0
sg23
I24
sg24
I0
sbssg25
S'0\xcb(u\x1e\xfec\x9c\xed\xad\x06\xac)\xb2\x04\xf6'
p638
ssS'_usr_local_lib_python2_7_dist-packages_django_conf_global_settings'
p639
(dp640
g6
(dp641
g8
S'_usr_local_lib_python2_7_dist-packages_django_conf_global_settings.html'
p642
sg10
S'/usr/local/lib/python2.7/dist-packages/django/conf/global_settings'
p643
sg12
g13
(g14
g15
NtRp644
(dp645
g18
I1
sg19
I0
sg20
I121
sg21
I0
sg22
I0
sg23
I0
sg24
I0
sbssg25
S'{\xeb\xd1\n\xda\xe8\x00\xb5\x8e\x8eR\xa5,\x14\x87('
p646
ssS'clei_urls'
p647
(dp648
g6
(dp649
g8
S'clei_urls.html'
p650
sg10
S'clei/urls'
p651
sg12
g13
(g14
g15
NtRp652
(dp653
g18
I1
sg19
I0
sg20
I2
sg21
I0
sg22
I0
sg23
I0
sg24
I0
sbssg25
S'\xbf\x98\xe3\xa8g\x1c\xee\xc5\x0f\x160 \xa8Y\xda\x1d'
p654
ssS'_usr_local_lib_python2_7_dist-packages_django_core_wsgi'
p655
(dp656
g6
(dp657
g8
S'_usr_local_lib_python2_7_dist-packages_django_core_wsgi.html'
p658
sg10
S'/usr/local/lib/python2.7/dist-packages/django/core/wsgi'
p659
sg12
g13
(g14
g15
NtRp660
(dp661
g18
I1
sg19
I0
sg20
I3
sg21
I0
sg22
I0
sg23
I1
sg24
I0
sbssg25
S' \x0e\x1b\xd1D\xd0\x13<c\x84?v\xdf\xd1\xf8\x84'
p662
ssS'asistente_urls'
p663
(dp664
g6
(dp665
g8
S'asistente_urls.html'
p666
sg10
S'asistente/urls'
p667
sg12
g13
(g14
g15
NtRp668
(dp669
g18
I1
sg19
I0
sg20
I4
sg21
I0
sg22
I0
sg23
I0
sg24
I0
sbssg25
S'\xab\x11\x80v\xf1h\x9a\xddn\xc0\xc2\x1c\xf4\xeaZ\xb1'
p670
ssS'_usr_local_lib_python2_7_dist-packages_django_utils_decorators'
p671
(dp672
g6
(dp673
g8
S'_usr_local_lib_python2_7_dist-packages_django_utils_decorators.html'
p674
sg10
S'/usr/local/lib/python2.7/dist-packages/django/utils/decorators'
p675
sg12
g13
(g14
g15
NtRp676
(dp677
g18
I1
sg19
I0
sg20
I62
sg21
I0
sg22
I0
sg23
I32
sg24
I0
sbssg25
S'Q\x15\x83\xe9\xfd\xa0\x18^\x13\xfaB\xe5\xf4V\xf3\xac'
p678
ssS'_usr_local_lib_python2_7_dist-packages_django_db_backends_sqlite3_base'
p679
(dp680
g6
(dp681
g8
S'_usr_local_lib_python2_7_dist-packages_django_db_backends_sqlite3_base.html'
p682
sg10
S'/usr/local/lib/python2.7/dist-packages/django/db/backends/sqlite3/base'
p683
sg12
g13
(g14
g15
NtRp684
(dp685
g18
I1
sg19
I0
sg20
I299
sg21
I0
sg22
I0
sg23
I147
sg24
I0
sbssg25
S'\xac\xa4!\x9c\x80\xed)).p\xf7~\xcaxGd'
p686
ssS'_usr_local_lib_python2_7_dist-packages_django_contrib_staticfiles_finders'
p687
(dp688
g6
(dp689
g8
S'_usr_local_lib_python2_7_dist-packages_django_contrib_staticfiles_finders.html'
p690
sg10
S'/usr/local/lib/python2.7/dist-packages/django/contrib/staticfiles/finders'
p691
sg12
g13
(g14
g15
NtRp692
(dp693
g18
I1
sg19
I0
sg20
I151
sg21
I0
sg22
I0
sg23
I113
sg24
I0
sbssg25
S'K\xbeC\xa6-\rV\xae\x13;\x8e;\xbeDX\xb3'
p694
ssS'_usr_local_lib_python2_7_dist-packages_django_utils_dates'
p695
(dp696
g6
(dp697
g8
S'_usr_local_lib_python2_7_dist-packages_django_utils_dates.html'
p698
sg10
S'/usr/local/lib/python2.7/dist-packages/django/utils/dates'
p699
sg12
g13
(g14
g15
NtRp700
(dp701
g18
I1
sg19
I0
sg20
I9
sg21
I0
sg22
I0
sg23
I0
sg24
I0
sbssg25
S'\xed\xe1n\x81\x12\xc1\xc6\x8b\xd8\x98O4:mTA'
p702
ssS'_usr_local_lib_python2_7_dist-packages_django_core_files_base'
p703
(dp704
g6
(dp705
g8
S'_usr_local_lib_python2_7_dist-packages_django_core_files_base.html'
p706
sg10
S'/usr/local/lib/python2.7/dist-packages/django/core/files/base'
p707
sg12
g13
(g14
g15
NtRp708
(dp709
g18
I1
sg19
I0
sg20
I106
sg21
I0
sg22
I0
sg23
I70
sg24
I0
sbssg25
S'4\xa9\x80\x03\xbc\x98\xe4u\\@\xe5\x9de\xb8lr'
p710
ssS'_usr_local_lib_python2_7_dist-packages_django_conf___init__'
p711
(dp712
g6
(dp713
g8
S'_usr_local_lib_python2_7_dist-packages_django_conf___init__.html'
p714
sg10
S'/usr/local/lib/python2.7/dist-packages/django/conf/__init__'
p715
sg12
g13
(g14
g15
NtRp716
(dp717
g18
I1
sg19
I0
sg20
I101
sg21
I0
sg22
I0
sg23
I32
sg24
I0
sbssg25
S'\xe4H\xc7h\xedx\xb0\x90\x9b%6\xf8p\xe8\xe8.'
p718
ssS'_usr_local_lib_python2_7_dist-packages_django_dispatch___init__'
p719
(dp720
g6
(dp721
g8
S'_usr_local_lib_python2_7_dist-packages_django_dispatch___init__.html'
p722
sg10
S'/usr/local/lib/python2.7/dist-packages/django/dispatch/__init__'
p723
sg12
g13
(g14
g15
NtRp724
(dp725
g18
I1
sg19
I0
sg20
I1
sg21
I0
sg22
I0
sg23
I0
sg24
I0
sbssg25
S'\xe9$\xa4\xf3k\xc7$G\xbe^\x9e5~A\x94\xd1'
p726
ssS'_usr_local_lib_python2_7_dist-packages_django_test_html'
p727
(dp728
g6
(dp729
g8
S'_usr_local_lib_python2_7_dist-packages_django_test_html.html'
p730
sg10
S'/usr/local/lib/python2.7/dist-packages/django/test/html'
p731
sg12
g13
(g14
g15
NtRp732
(dp733
g18
I1
sg19
I0
sg20
I167
sg21
I0
sg22
I0
sg23
I128
sg24
I0
sbssg25
S'\xb3\x03\x1f\xb6\xaf\xaf\xe2p\xe6\x89\x19\x83\xe6{\xa4^'
p734
ssS'_usr_local_lib_python2_7_dist-packages_django_utils_numberformat'
p735
(dp736
g6
(dp737
g8
S'_usr_local_lib_python2_7_dist-packages_django_utils_numberformat.html'
p738
sg10
S'/usr/local/lib/python2.7/dist-packages/django/utils/numberformat'
p739
sg12
g13
(g14
g15
NtRp740
(dp741
g18
I1
sg19
I0
sg20
I31
sg21
I0
sg22
I0
sg23
I27
sg24
I0
sbssg25
S'\xf0(3>w\xdbe\x8d\x05\x0e\x03\x13{\x0c\x8d/'
p742
ssS'persona_urls'
p743
(dp744
g6
(dp745
g8
S'persona_urls.html'
p746
sg10
S'persona/urls'
p747
sg12
g13
(g14
g15
NtRp748
(dp749
g18
I1
sg19
I0
sg20
I2
sg21
I0
sg22
I0
sg23
I0
sg24
I0
sbssg25
S'\xc4\xdc\xd5\xd6\xa4\x8c\x9c\xf3\x89\x97j*\xa2\xf4\xe5z'
p750
ssS'_usr_local_lib_python2_7_dist-packages_django_utils_safestring'
p751
(dp752
g6
(dp753
g8
S'_usr_local_lib_python2_7_dist-packages_django_utils_safestring.html'
p754
sg10
S'/usr/local/lib/python2.7/dist-packages/django/utils/safestring'
p755
sg12
g13
(g14
g15
NtRp756
(dp757
g18
I1
sg19
I0
sg20
I64
sg21
I0
sg22
I0
sg23
I27
sg24
I0
sbssg25
S'\xe8)\x19\x99?y\xfb\xaeW\xfd\x13\xc3\xbb\xdd,\x1b'
p758
ssS'_usr_local_lib_python2_7_dist-packages_django_http_utils'
p759
(dp760
g6
(dp761
g8
S'_usr_local_lib_python2_7_dist-packages_django_http_utils.html'
p762
sg10
S'/usr/local/lib/python2.7/dist-packages/django/http/utils'
p763
sg12
g13
(g14
g15
NtRp764
(dp765
g18
I1
sg19
I0
sg20
I43
sg21
I0
sg22
I0
sg23
I28
sg24
I0
sbssg25
S'\xc5\x02b\xc4\xaaUC,,\xe1;}33(]'
p766
ssS'_usr_local_lib_python2_7_dist-packages_django_core_servers_basehttp'
p767
(dp768
g6
(dp769
g8
S'_usr_local_lib_python2_7_dist-packages_django_core_servers_basehttp.html'
p770
sg10
S'/usr/local/lib/python2.7/dist-packages/django/core/servers/basehttp'
p771
sg12
g13
(g14
g15
NtRp772
(dp773
g18
I1
sg19
I0
sg20
I89
sg21
I0
sg22
I0
sg23
I59
sg24
I0
sbssg25
S'\xactZ\xf3\xc3\xc9\xeb\xb0#\xae\x94f\xd8\xc2N\x83'
p774
ssS'miembro_cp_admin'
p775
(dp776
g6
(dp777
g8
S'miembro_cp_admin.html'
p778
sg10
S'miembro_cp/admin'
p779
sg12
g13
(g14
g15
NtRp780
(dp781
g18
I1
sg19
I0
sg20
I5
sg21
I0
sg22
I0
sg23
I0
sg24
I0
sbssg25
S'u\x03\xc78\xb9\xb9\x01\xb7\xcb\xdc\x96s\x7f\x7f\xb2\xfe'
p782
ssS'_usr_local_lib_python2_7_dist-packages_django_template_context'
p783
(dp784
g6
(dp785
g8
S'_usr_local_lib_python2_7_dist-packages_django_template_context.html'
p786
sg10
S'/usr/local/lib/python2.7/dist-packages/django/template/context'
p787
sg12
g13
(g14
g15
NtRp788
(dp789
g18
I1
sg19
I0
sg20
I104
sg21
I0
sg22
I0
sg23
I40
sg24
I0
sbssg25
S'\xe0^^\x91{k|\xab\xaf\xe7Y\x8a+2\xc3\xfa'
p790
ssS'_usr_local_lib_python2_7_dist-packages_django_db_models_sql_expressions'
p791
(dp792
g6
(dp793
g8
S'_usr_local_lib_python2_7_dist-packages_django_db_models_sql_expressions.html'
p794
sg10
S'/usr/local/lib/python2.7/dist-packages/django/db/models/sql/expressions'
p795
sg12
g13
(g14
g15
NtRp796
(dp797
g18
I1
sg19
I0
sg20
I81
sg21
I0
sg22
I0
sg23
I66
sg24
I0
sbssg25
S'\xc8\x8c\xd2\xcb\xf1\xe6\xbe\xf4\x7f\xc5\x17\xfc\xf1\xa4O\xdb'
p798
ssS'_usr_local_lib_python2_7_dist-packages_django_db_models_sql_query'
p799
(dp800
g6
(dp801
g8
S'_usr_local_lib_python2_7_dist-packages_django_db_models_sql_query.html'
p802
sg10
S'/usr/local/lib/python2.7/dist-packages/django/db/models/sql/query'
p803
sg12
g13
(g14
g15
NtRp804
(dp805
g18
I1
sg19
I0
sg20
I929
sg21
I0
sg22
I0
sg23
I526
sg24
I0
sbssg25
S'\x84\x83\xe5\x1d\xef\xe7T\x9f\xd1N\xcb\x8c\xf3\xa6\xa7\xc1'
p806
ssS'_usr_local_lib_python2_7_dist-packages_django_utils_functional'
p807
(dp808
g6
(dp809
g8
S'_usr_local_lib_python2_7_dist-packages_django_utils_functional.html'
p810
sg10
S'/usr/local/lib/python2.7/dist-packages/django/utils/functional'
p811
sg12
g13
(g14
g15
NtRp812
(dp813
g18
I1
sg19
I0
sg20
I222
sg21
I0
sg22
I0
sg23
I88
sg24
I0
sbssg25
S'5\x82\x13\xa4:_4\xaa\xfe\x92i\xba;\xc7\x03\xac'
p814
ssS'_usr_local_lib_python2_7_dist-packages_django_contrib_admin_templatetags___init__'
p815
(dp816
g6
(dp817
g8
S'_usr_local_lib_python2_7_dist-packages_django_contrib_admin_templatetags___init__.html'
p818
sg10
S'/usr/local/lib/python2.7/dist-packages/django/contrib/admin/templatetags/__init__'
p819
sg12
g13
(g14
g15
NtRp820
(dp821
g18
I1
sg19
I0
sg20
I0
sg21
I0
sg22
I0
sg23
I0
sg24
I0
sbssg25
S'\xb0\xc8pN\xaf>\xa0\xbaz\x144\xe0A9\xb8?'
p822
ssS'_usr_local_lib_python2_7_dist-packages_django_contrib_auth___init__'
p823
(dp824
g6
(dp825
g8
S'_usr_local_lib_python2_7_dist-packages_django_contrib_auth___init__.html'
p826
sg10
S'/usr/local/lib/python2.7/dist-packages/django/contrib/auth/__init__'
p827
sg12
g13
(g14
g15
NtRp828
(dp829
g18
I1
sg19
I0
sg20
I86
sg21
I0
sg22
I0
sg23
I61
sg24
I0
sbssg25
S'\x8db\xb6r\xc3\x13\xd9`\xda\xa3m\xb0\xa5Ht\xd2'
p830
ssS'evento_models'
p831
(dp832
g6
(dp833
g8
S'evento_models.html'
p834
sg10
S'evento/models'
p835
sg12
g13
(g14
g15
NtRp836
(dp837
g18
I1
sg19
I0
sg20
I36
sg21
I0
sg22
I0
sg23
I3
sg24
I0
sbssg25
S'\xbbe\xae\x06{b\xf9\xa0\xfea\x94xT\xfa\x0e\x99'
p838
ssS'_usr_local_lib_python2_7_dist-packages_django_db_models_query'
p839
(dp840
g6
(dp841
g8
S'_usr_local_lib_python2_7_dist-packages_django_db_models_query.html'
p842
sg10
S'/usr/local/lib/python2.7/dist-packages/django/db/models/query'
p843
sg12
g13
(g14
g15
NtRp844
(dp845
g18
I1
sg19
I0
sg20
I889
sg21
I0
sg22
I0
sg23
I610
sg24
I0
sbssg25
S' U\xca\x81a^\x9a\xe6\xcc\xffdU\x92t\xb5\xf7'
p846
ssS'_usr_local_lib_python2_7_dist-packages_django_core_cache_backends_db'
p847
(dp848
g6
(dp849
g8
S'_usr_local_lib_python2_7_dist-packages_django_core_cache_backends_db.html'
p850
sg10
S'/usr/local/lib/python2.7/dist-packages/django/core/cache/backends/db'
p851
sg12
g13
(g14
g15
NtRp852
(dp853
g18
I1
sg19
I0
sg20
I136
sg21
I0
sg22
I0
sg23
I110
sg24
I0
sbssg25
S'X\xb8G\xf6E\x19K\xf5\xea\x8c\xd2\xd7M2p\xfd'
p854
ssS'_usr_local_lib_python2_7_dist-packages_django_utils_tree'
p855
(dp856
g6
(dp857
g8
S'_usr_local_lib_python2_7_dist-packages_django_utils_tree.html'
p858
sg10
S'/usr/local/lib/python2.7/dist-packages/django/utils/tree'
p859
sg12
g13
(g14
g15
NtRp860
(dp861
g18
I1
sg19
I0
sg20
I50
sg21
I0
sg22
I0
sg23
I20
sg24
I0
sbssg25
S'\xe5\xe1\xd5\x1d\xc5\x8d\xf1\x11\x132Gkw\xb6\x9e\xda'
p862
ssS'_usr_local_lib_python2_7_dist-packages_django_contrib_admin_models'
p863
(dp864
g6
(dp865
g8
S'_usr_local_lib_python2_7_dist-packages_django_contrib_admin_models.html'
p866
sg10
S'/usr/local/lib/python2.7/dist-packages/django/contrib/admin/models'
p867
sg12
g13
(g14
g15
NtRp868
(dp869
g18
I1
sg19
I0
sg20
I57
sg21
I0
sg22
I0
sg23
I21
sg24
I0
sbssg25
S'\xf3a\xf6\xf3U{84\xad\x04\x89\\\x95ra\x8a'
p870
ssS'_usr_local_lib_python2_7_dist-packages_django_core_management_sql'
p871
(dp872
g6
(dp873
g8
S'_usr_local_lib_python2_7_dist-packages_django_core_management_sql.html'
p874
sg10
S'/usr/local/lib/python2.7/dist-packages/django/core/management/sql'
p875
sg12
g13
(g14
g15
NtRp876
(dp877
g18
I1
sg19
I0
sg20
I126
sg21
I0
sg22
I0
sg23
I82
sg24
I0
sbssg25
S'\xd1\xa0\x0c\x85\xa7\x13\x06\xd4\\};q\xa4\x06\xe7\x0c'
p878
ssS'_usr_local_lib_python2_7_dist-packages_django_db_backends_sqlite3_creation'
p879
(dp880
g6
(dp881
g8
S'_usr_local_lib_python2_7_dist-packages_django_db_backends_sqlite3_creation.html'
p882
sg10
S'/usr/local/lib/python2.7/dist-packages/django/db/backends/sqlite3/creation'
p883
sg12
g13
(g14
g15
NtRp884
(dp885
g18
I1
sg19
I0
sg20
I42
sg21
I0
sg22
I0
sg23
I16
sg24
I0
sbssg25
S'\xa4\xe6^$\x93\x1f\x12\xe2Z\xfel\x91\xd9zV-'
p886
ssS'miembro_cp_models'
p887
(dp888
g6
(dp889
g8
S'miembro_cp_models.html'
p890
sg10
S'miembro_cp/models'
p891
sg12
g13
(g14
g15
NtRp892
(dp893
g18
I1
sg19
I0
sg20
I23
sg21
I0
sg22
I0
sg23
I3
sg24
I0
sbssg25
S'\x81\xfe\x98-)\x03\xbf\xf9\x1b\x19\x1c\xcf\xd9\x07m4'
p894
ssS'_usr_local_lib_python2_7_dist-packages_django_contrib_messages_storage_cookie'
p895
(dp896
g6
(dp897
g8
S'_usr_local_lib_python2_7_dist-packages_django_contrib_messages_storage_cookie.html'
p898
sg10
S'/usr/local/lib/python2.7/dist-packages/django/contrib/messages/storage/cookie'
p899
sg12
g13
(g14
g15
NtRp900
(dp901
g18
I1
sg19
I0
sg20
I81
sg21
I0
sg22
I0
sg23
I58
sg24
I0
sbssg25
S' rX\x14\xb3\x84ho\x85G\xfeh1v(`'
p902
ssS'_usr_local_lib_python2_7_dist-packages_django_utils_termcolors'
p903
(dp904
g6
(dp905
g8
S'_usr_local_lib_python2_7_dist-packages_django_utils_termcolors.html'
p906
sg10
S'/usr/local/lib/python2.7/dist-packages/django/utils/termcolors'
p907
sg12
g13
(g14
g15
NtRp908
(dp909
g18
I1
sg19
I0
sg20
I57
sg21
I0
sg22
I0
sg23
I40
sg24
I0
sbssg25
S'\xd6\xb0W|\r\xaa\xcb\xa2\x8f;h\xe4\x92U\xa1\xd9'
p910
ssS'_usr_local_lib_python2_7_dist-packages_django_template_loaders___init__'
p911
(dp912
g6
(dp913
g8
S'_usr_local_lib_python2_7_dist-packages_django_template_loaders___init__.html'
p914
sg10
S'/usr/local/lib/python2.7/dist-packages/django/template/loaders/__init__'
p915
sg12
g13
(g14
g15
NtRp916
(dp917
g18
I1
sg19
I0
sg20
I0
sg21
I0
sg22
I0
sg23
I0
sg24
I0
sbssg25
S'\xb0\xc8pN\xaf>\xa0\xbaz\x144\xe0A9\xb8?'
p918
ssS'_usr_local_lib_python2_7_dist-packages_django_db_models_fields_files'
p919
(dp920
g6
(dp921
g8
S'_usr_local_lib_python2_7_dist-packages_django_db_models_fields_files.html'
p922
sg10
S'/usr/local/lib/python2.7/dist-packages/django/db/models/fields/files'
p923
sg12
g13
(g14
g15
NtRp924
(dp925
g18
I1
sg19
I0
sg20
I206
sg21
I0
sg22
I0
sg23
I138
sg24
I0
sbssg25
S'X\x12\xfa|\xc7fm\xf3J\x85\x9c74\x11\x9a\xd9'
p926
ssS'_usr_local_lib_python2_7_dist-packages_django_utils_html_parser'
p927
(dp928
g6
(dp929
g8
S'_usr_local_lib_python2_7_dist-packages_django_utils_html_parser.html'
p930
sg10
S'/usr/local/lib/python2.7/dist-packages/django/utils/html_parser'
p931
sg12
g13
(g14
g15
NtRp932
(dp933
g18
I1
sg19
I0
sg20
I82
sg21
I0
sg22
I0
sg23
I74
sg24
I0
sbssg25
S'e\x17l\x17W\x16\xddr\xecYeXj\xc6!\xf4'
p934
ssS'_usr_local_lib_python2_7_dist-packages_django_contrib_auth_backends'
p935
(dp936
g6
(dp937
g8
S'_usr_local_lib_python2_7_dist-packages_django_contrib_auth_backends.html'
p938
sg10
S'/usr/local/lib/python2.7/dist-packages/django/contrib/auth/backends'
p939
sg12
g13
(g14
g15
NtRp940
(dp941
g18
I1
sg19
I0
sg20
I71
sg21
I0
sg22
I0
sg23
I56
sg24
I0
sbssg25
S'\xd5Zn\xd3\xef?\xc8\xa3\x1b\x1d\xa8\x0cx\xd8\xe5\xfa'
p942
ssS'_usr_local_lib_python2_7_dist-packages_django_template_response'
p943
(dp944
g6
(dp945
g8
S'_usr_local_lib_python2_7_dist-packages_django_template_response.html'
p946
sg10
S'/usr/local/lib/python2.7/dist-packages/django/template/response'
p947
sg12
g13
(g14
g15
NtRp948
(dp949
g18
I1
sg19
I0
sg20
I72
sg21
I0
sg22
I0
sg23
I50
sg24
I0
sbssg25
S'W\xe7\xef\x08`\xcco\xe3\x14GL\x9fl,\xde\xdc'
p950
ssS'_usr_local_lib_python2_7_dist-packages_django_core_files_images'
p951
(dp952
g6
(dp953
g8
S'_usr_local_lib_python2_7_dist-packages_django_core_files_images.html'
p954
sg10
S'/usr/local/lib/python2.7/dist-packages/django/core/files/images'
p955
sg12
g13
(g14
g15
NtRp956
(dp957
g18
I1
sg19
I0
sg20
I43
sg21
I0
sg22
I0
sg23
I34
sg24
I0
sbssg25
S'.\x9e9\xfa\xa6_\xd6\x15bS\x8b\xa8\xec\xbb\x91\x18'
p958
ssS'_usr_local_lib_python2_7_dist-packages_django_db_utils'
p959
(dp960
g6
(dp961
g8
S'_usr_local_lib_python2_7_dist-packages_django_db_utils.html'
p962
sg10
S'/usr/local/lib/python2.7/dist-packages/django/db/utils'
p963
sg12
g13
(g14
g15
NtRp964
(dp965
g18
I1
sg19
I0
sg20
I172
sg21
I0
sg22
I0
sg23
I59
sg24
I0
sbssg25
S'\xefx\x04\x13\xd9)\xc9\x1a\x85 \xa5Y\xfc\xac~\xab'
p966
ssS'_usr_local_lib_python2_7_dist-packages_django_contrib_messages_storage_session'
p967
(dp968
g6
(dp969
g8
S'_usr_local_lib_python2_7_dist-packages_django_contrib_messages_storage_session.html'
p970
sg10
S'/usr/local/lib/python2.7/dist-packages/django/contrib/messages/storage/session'
p971
sg12
g13
(g14
g15
NtRp972
(dp973
g18
I1
sg19
I0
sg20
I23
sg21
I0
sg22
I0
sg23
I10
sg24
I0
sbssg25
S'\xc4\xc3\x134\xbcf\xf1\x1c\x92Jn\xf2dw(\x97'
p974
ssS'_usr_local_lib_python2_7_dist-packages_django_test_runner'
p975
(dp976
g6
(dp977
g566
S'_usr_local_lib_python2_7_dist-packages_django_test_runner.html'
p978
sg568
S'/usr/local/lib/python2.7/dist-packages/django/test/runner'
p979
sg570
g13
(g14
g15
NtRp980
(dp981
g18
I1
sg19
I0
sg20
I150
sg21
I0
sg22
I0
sg23
I20
sg24
I0
sbssg25
S'\x8b\x8f<6\x7fV\xf4\xccS*,J\xc9\xc2\xc1W'
p982
ssS'_usr_local_lib_python2_7_dist-packages_django_core_mail_message'
p983
(dp984
g6
(dp985
g8
S'_usr_local_lib_python2_7_dist-packages_django_core_mail_message.html'
p986
sg10
S'/usr/local/lib/python2.7/dist-packages/django/core/mail/message'
p987
sg12
g13
(g14
g15
NtRp988
(dp989
g18
I1
sg19
I0
sg20
I217
sg21
I0
sg22
I0
sg23
I163
sg24
I0
sbssg25
S'\xcb-\xd6s\x18\x15o_C\xc9\xdc\x9c7\xf1\xe3\xef'
p990
ssS'_usr_local_lib_python2_7_dist-packages_django_utils__os'
p991
(dp992
g6
(dp993
g8
S'_usr_local_lib_python2_7_dist-packages_django_utils__os.html'
p994
sg10
S'/usr/local/lib/python2.7/dist-packages/django/utils/_os'
p995
sg12
g13
(g14
g15
NtRp996
(dp997
g18
I1
sg19
I0
sg20
I43
sg21
I0
sg22
I0
sg23
I12
sg24
I0
sbssg25
S'}\x1a4\x1a\x1bU\x9a>V\xa0iz2D\x17\xe9'
p998
ssS'_usr_local_lib_python2_7_dist-packages_django_db_models_sql_constants'
p999
(dp1000
g6
(dp1001
g8
S'_usr_local_lib_python2_7_dist-packages_django_db_models_sql_constants.html'
p1002
sg10
S'/usr/local/lib/python2.7/dist-packages/django/db/models/sql/constants'
p1003
sg12
g13
(g14
g15
NtRp1004
(dp1005
g18
I1
sg19
I0
sg20
I10
sg21
I0
sg22
I0
sg23
I0
sg24
I0
sbssg25
S'\xd2\xcb[\x02\xb4&\x1e\xbe\xca,\x18\x97\xbc\xb29;'
p1006
ssS'_usr_local_lib_python2_7_dist-packages_django_utils_dateparse'
p1007
(dp1008
g6
(dp1009
g8
S'_usr_local_lib_python2_7_dist-packages_django_utils_dateparse.html'
p1010
sg10
S'/usr/local/lib/python2.7/dist-packages/django/utils/dateparse'
p1011
sg12
g13
(g14
g15
NtRp1012
(dp1013
g18
I1
sg19
I0
sg20
I38
sg21
I0
sg22
I0
sg23
I27
sg24
I0
sbssg25
S'\xe8\n\xd12\x94@\xf2\x18\xb8\x94;-z\x10\xfbq'
p1014
ssS'miembro_cp_tests'
p1015
(dp1016
g564
(dp1017
g566
S'miembro_cp_tests.html'
p1018
sg568
S'miembro_cp/tests'
p1019
sg570
g13
(g14
g15
NtRp1020
(dp1021
g18
I1
sg19
I0
sg20
I1
sg21
I0
sg22
I0
sg23
I0
sg24
I0
sbssg573
S'\x97e\xc4\xf4\xb6\x04\xfd<\xae\xb2Y\x0e\xa0+\xf2\xcc'
p1022
ssS'_usr_local_lib_python2_7_dist-packages_django_core_management_commands_loaddata'
p1023
(dp1024
g6
(dp1025
g8
S'_usr_local_lib_python2_7_dist-packages_django_core_management_commands_loaddata.html'
p1026
sg10
S'/usr/local/lib/python2.7/dist-packages/django/core/management/commands/loaddata'
p1027
sg12
g13
(g14
g15
NtRp1028
(dp1029
g18
I1
sg19
I0
sg20
I166
sg21
I0
sg22
I0
sg23
I66
sg24
I0
sbssg25
S'\xfb\xd6\n\xac\xd8\x00x\xa9\x87\x8e\xd7\x1b\x08|X\xa9'
p1030
ssS'_usr_local_lib_python2_7_dist-packages_django_utils_tzinfo'
p1031
(dp1032
g6
(dp1033
g8
S'_usr_local_lib_python2_7_dist-packages_django_utils_tzinfo.html'
p1034
sg10
S'/usr/local/lib/python2.7/dist-packages/django/utils/tzinfo'
p1035
sg12
g13
(g14
g15
NtRp1036
(dp1037
g18
I1
sg19
I0
sg20
I54
sg21
I0
sg22
I0
sg23
I35
sg24
I0
sbssg25
S'Q}0wV\xaeH\xccD\xdcm\xdf&\xce7\xf5'
p1038
ssS'_usr_local_lib_python2_7_dist-packages_django_contrib_messages_utils'
p1039
(dp1040
g6
(dp1041
g8
S'_usr_local_lib_python2_7_dist-packages_django_contrib_messages_utils.html'
p1042
sg10
S'/usr/local/lib/python2.7/dist-packages/django/contrib/messages/utils'
p1043
sg12
g13
(g14
g15
NtRp1044
(dp1045
g18
I1
sg19
I0
sg20
I6
sg21
I0
sg22
I0
sg23
I0
sg24
I0
sbssg25
S'\x8e\xc7\xac\x98\xd8\x97}YJ\xae\xe1\x07\xa0\x03\xca\xd0'
p1046
ssS'miembro_cp_urls'
p1047
(dp1048
g6
(dp1049
g8
S'miembro_cp_urls.html'
p1050
sg10
S'miembro_cp/urls'
p1051
sg12
g13
(g14
g15
NtRp1052
(dp1053
g18
I1
sg19
I0
sg20
I4
sg21
I0
sg22
I0
sg23
I0
sg24
I0
sbssg25
S'\x10\xdb\xbb\xda\xf3\xce\xder\x88\r\x0b\x82Ad\xae\xb0'
p1054
ssS'_usr_local_lib_python2_7_dist-packages_django_db_models_sql_datastructures'
p1055
(dp1056
g6
(dp1057
g8
S'_usr_local_lib_python2_7_dist-packages_django_db_models_sql_datastructures.html'
p1058
sg10
S'/usr/local/lib/python2.7/dist-packages/django/db/models/sql/datastructures'
p1059
sg12
g13
(g14
g15
NtRp1060
(dp1061
g18
I1
sg19
I0
sg20
I34
sg21
I0
sg22
I0
sg23
I18
sg24
I0
sbssg25
S'\x16xx\xe1\x9eAt\xeaT\xd74^?F\xfe\xb8'
p1062
ssS'_usr_local_lib_python2_7_dist-packages_django_db_models_fields_related'
p1063
(dp1064
g6
(dp1065
g8
S'_usr_local_lib_python2_7_dist-packages_django_db_models_fields_related.html'
p1066
sg10
S'/usr/local/lib/python2.7/dist-packages/django/db/models/fields/related'
p1067
sg12
g13
(g14
g15
NtRp1068
(dp1069
g18
I1
sg19
I0
sg20
I840
sg21
I0
sg22
I0
sg23
I500
sg24
I0
sbssg25
S'\xef~;\x85\xf9\xf0\xed\xc0\x9e\xb5\xa3r\xc0,X9'
p1070
ssS'_usr_local_lib_python2_7_dist-packages_django_db_backends_creation'
p1071
(dp1072
g6
(dp1073
g8
S'_usr_local_lib_python2_7_dist-packages_django_db_backends_creation.html'
p1074
sg10
S'/usr/local/lib/python2.7/dist-packages/django/db/backends/creation'
p1075
sg12
g13
(g14
g15
NtRp1076
(dp1077
g18
I1
sg19
I0
sg20
I254
sg21
I0
sg22
I0
sg23
I117
sg24
I0
sbssg25
S'\xa4\xfbI\xe4\x01\x8c\x8b\xf6\xb7\xd906\x16\x17_('
p1078
ssS'_usr_local_lib_python2_7_dist-packages_django_contrib_staticfiles_templatetags___init__'
p1079
(dp1080
g6
(dp1081
g8
S'_usr_local_lib_python2_7_dist-packages_django_contrib_staticfiles_templatetags___init__.html'
p1082
sg10
S'/usr/local/lib/python2.7/dist-packages/django/contrib/staticfiles/templatetags/__init__'
p1083
sg12
g13
(g14
g15
NtRp1084
(dp1085
g18
I1
sg19
I0
sg20
I0
sg21
I0
sg22
I0
sg23
I0
sg24
I0
sbssg25
S'\xb0\xc8pN\xaf>\xa0\xbaz\x144\xe0A9\xb8?'
p1086
ssS'_usr_local_lib_python2_7_dist-packages_django_shortcuts___init__'
p1087
(dp1088
g6
(dp1089
g8
S'_usr_local_lib_python2_7_dist-packages_django_shortcuts___init__.html'
p1090
sg10
S'/usr/local/lib/python2.7/dist-packages/django/shortcuts/__init__'
p1091
sg12
g13
(g14
g15
NtRp1092
(dp1093
g18
I1
sg19
I0
sg20
I63
sg21
I0
sg22
I0
sg23
I44
sg24
I0
sbssg25
S'\x12\x89\xc4Etg\xa9*\x81g\xe8`\xd4\x93\xf14'
p1094
ssS'_usr_local_lib_python2_7_dist-packages_django_db_backends_sqlite3___init__'
p1095
(dp1096
g6
(dp1097
g8
S'_usr_local_lib_python2_7_dist-packages_django_db_backends_sqlite3___init__.html'
p1098
sg10
S'/usr/local/lib/python2.7/dist-packages/django/db/backends/sqlite3/__init__'
p1099
sg12
g13
(g14
g15
NtRp1100
(dp1101
g18
I1
sg19
I0
sg20
I0
sg21
I0
sg22
I0
sg23
I0
sg24
I0
sbssg25
S'\xb0\xc8pN\xaf>\xa0\xbaz\x144\xe0A9\xb8?'
p1102
ssS'_usr_local_lib_python2_7_dist-packages_django_conf_urls___init__'
p1103
(dp1104
g6
(dp1105
g8
S'_usr_local_lib_python2_7_dist-packages_django_conf_urls___init__.html'
p1106
sg10
S'/usr/local/lib/python2.7/dist-packages/django/conf/urls/__init__'
p1107
sg12
g13
(g14
g15
NtRp1108
(dp1109
g18
I1
sg19
I0
sg20
I42
sg21
I0
sg22
I0
sg23
I4
sg24
I0
sbssg25
S'J\xcc-z3\xfb\xa4\xc2\xee\xdb\xfeqm\xd6I\x9e'
p1110
ssS'_usr_local_lib_python2_7_dist-packages_django_contrib_admin_sites'
p1111
(dp1112
g6
(dp1113
g8
S'_usr_local_lib_python2_7_dist-packages_django_contrib_admin_sites.html'
p1114
sg10
S'/usr/local/lib/python2.7/dist-packages/django/contrib/admin/sites'
p1115
sg12
g13
(g14
g15
NtRp1116
(dp1117
g18
I1
sg19
I0
sg20
I204
sg21
I0
sg22
I0
sg23
I120
sg24
I0
sbssg25
S'\xc0\x0cB\x9e\xba\x9d\x14\xc5\xa6\x1f\x03\xea\xc7\xe7\xdc\xe9'
p1118
ssS'_usr_local_lib_python2_7_dist-packages_django_contrib_admin_options'
p1119
(dp1120
g6
(dp1121
g8
S'_usr_local_lib_python2_7_dist-packages_django_contrib_admin_options.html'
p1122
sg10
S'/usr/local/lib/python2.7/dist-packages/django/contrib/admin/options'
p1123
sg12
g13
(g14
g15
NtRp1124
(dp1125
g18
I1
sg19
I0
sg20
I873
sg21
I0
sg22
I0
sg23
I673
sg24
I0
sbssg25
S'\xde%\xd2\x91\xfb\x01\x7f\xcao\x86xw\x9d\x8d\xf9\xda'
p1126
ssS'_usr_local_lib_python2_7_dist-packages_django_db_models_constants'
p1127
(dp1128
g6
(dp1129
g8
S'_usr_local_lib_python2_7_dist-packages_django_db_models_constants.html'
p1130
sg10
S'/usr/local/lib/python2.7/dist-packages/django/db/models/constants'
p1131
sg12
g13
(g14
g15
NtRp1132
(dp1133
g18
I1
sg19
I0
sg20
I1
sg21
I0
sg22
I0
sg23
I0
sg24
I0
sbssg25
S'\xb9g\xea"\xa4\xe6,\x8a\xed<\xce\xce_\x8fz\x0f'
p1134
ssS'_usr_local_lib_python2_7_dist-packages_django_contrib_sessions_middleware'
p1135
(dp1136
g6
(dp1137
g8
S'_usr_local_lib_python2_7_dist-packages_django_contrib_sessions_middleware.html'
p1138
sg10
S'/usr/local/lib/python2.7/dist-packages/django/contrib/sessions/middleware'
p1139
sg12
g13
(g14
g15
NtRp1140
(dp1141
g18
I1
sg19
I0
sg20
I29
sg21
I0
sg22
I0
sg23
I12
sg24
I0
sbssg25
S'\xe2\xbd\xc4J\x89\xa2\xab\x8b\x17@\xc3o\xff\x99\x11\x02'
p1142
ssS'_usr_local_lib_python2_7_dist-packages_django_contrib_staticfiles_models'
p1143
(dp1144
g6
(dp1145
g8
S'_usr_local_lib_python2_7_dist-packages_django_contrib_staticfiles_models.html'
p1146
sg10
S'/usr/local/lib/python2.7/dist-packages/django/contrib/staticfiles/models'
p1147
sg12
g13
(g14
g15
NtRp1148
(dp1149
g18
I1
sg19
I0
sg20
I0
sg21
I0
sg22
I0
sg23
I0
sg24
I0
sbssg25
S'\xb0\xc8pN\xaf>\xa0\xbaz\x144\xe0A9\xb8?'
p1150
ssS'_usr_local_lib_python2_7_dist-packages_django_db_models_sql_aggregates'
p1151
(dp1152
g6
(dp1153
g8
S'_usr_local_lib_python2_7_dist-packages_django_db_models_sql_aggregates.html'
p1154
sg10
S'/usr/local/lib/python2.7/dist-packages/django/db/models/sql/aggregates'
p1155
sg12
g13
(g14
g15
NtRp1156
(dp1157
g18
I1
sg19
I0
sg20
I61
sg21
I0
sg22
I0
sg23
I30
sg24
I0
sbssg25
S'\xec\xecf<q\r\xe1\xf8t\xa8@p\xcd;\x19\xdf'
p1158
ssS'_usr_local_lib_python2_7_dist-packages_django_db_models_manager'
p1159
(dp1160
g6
(dp1161
g8
S'_usr_local_lib_python2_7_dist-packages_django_db_models_manager.html'
p1162
sg10
S'/usr/local/lib/python2.7/dist-packages/django/db/models/manager'
p1163
sg12
g13
(g14
g15
NtRp1164
(dp1165
g18
I1
sg19
I0
sg20
I170
sg21
I0
sg22
I0
sg23
I44
sg24
I0
sbssg25
S'\xb0a\x1f\x9c\xedN\x04bV\xf4d\xe3\xf2\xaa\x9bo'
p1166
ssS'_usr_local_lib_python2_7_dist-packages_django_core_management_validation'
p1167
(dp1168
g6
(dp1169
g8
S'_usr_local_lib_python2_7_dist-packages_django_core_management_validation.html'
p1170
sg10
S'/usr/local/lib/python2.7/dist-packages/django/core/management/validation'
p1171
sg12
g13
(g14
g15
NtRp1172
(dp1173
g18
I1
sg19
I0
sg20
I253
sg21
I0
sg22
I0
sg23
I122
sg24
I0
sbssg25
S'\xe3\x14\xd9X\x05\xc4\xb4xp\xd3\x17op\xfe\xd02'
p1174
ssS'_usr_local_lib_python2_7_dist-packages_django_forms_forms'
p1175
(dp1176
g6
(dp1177
g8
S'_usr_local_lib_python2_7_dist-packages_django_forms_forms.html'
p1178
sg10
S'/usr/local/lib/python2.7/dist-packages/django/forms/forms'
p1179
sg12
g13
(g14
g15
NtRp1180
(dp1181
g18
I1
sg19
I0
sg20
I290
sg21
I0
sg22
I0
sg23
I210
sg24
I0
sbssg25
S'A\xf8\xadT`\xfd7\x15\x9f\xeb\xaaz$\x8a\x9b\xb0'
p1182
ssS'_usr_local_lib_python2_7_dist-packages_django_utils_log'
p1183
(dp1184
g6
(dp1185
g8
S'_usr_local_lib_python2_7_dist-packages_django_utils_log.html'
p1186
sg10
S'/usr/local/lib/python2.7/dist-packages/django/utils/log'
p1187
sg12
g13
(g14
g15
NtRp1188
(dp1189
g18
I1
sg19
I0
sg20
I61
sg21
I0
sg22
I0
sg23
I34
sg24
I0
sbssg25
S'\xa6|\ng\xe9"Y\xab=\xce\x7f\xa7\xd0\x9fy\x97'
p1190
ssS'evento___init__'
p1191
(dp1192
g6
(dp1193
g8
S'evento___init__.html'
p1194
sg10
S'evento/__init__'
p1195
sg12
g13
(g14
g15
NtRp1196
(dp1197
g18
I1
sg19
I0
sg20
I0
sg21
I0
sg22
I0
sg23
I0
sg24
I0
sbssg25
S'\xb0\xc8pN\xaf>\xa0\xbaz\x144\xe0A9\xb8?'
p1198
ssS'_usr_local_lib_python2_7_dist-packages_django_contrib_admin_filters'
p1199
(dp1200
g6
(dp1201
g8
S'_usr_local_lib_python2_7_dist-packages_django_contrib_admin_filters.html'
p1202
sg10
S'/usr/local/lib/python2.7/dist-packages/django/contrib/admin/filters'
p1203
sg12
g13
(g14
g15
NtRp1204
(dp1205
g18
I1
sg19
I0
sg20
I188
sg21
I0
sg22
I0
sg23
I127
sg24
I0
sbssg25
S'\xdc\x99E\x93e!\xb8\xf2\xea\x85%\tr\xff\x931'
p1206
ssS'_usr_local_lib_python2_7_dist-packages_django_template_defaulttags'
p1207
(dp1208
g6
(dp1209
g8
S'_usr_local_lib_python2_7_dist-packages_django_template_defaulttags.html'
p1210
sg10
S'/usr/local/lib/python2.7/dist-packages/django/template/defaulttags'
p1211
sg12
g13
(g14
g15
NtRp1212
(dp1213
g18
I1
sg19
I0
sg20
I623
sg21
I0
sg22
I0
sg23
I446
sg24
I0
sbssg25
S'\xf4n\x9b\x1d\x10r\xc0c`\xa9.\xbc\xa3\xd3}\xd2'
p1214
ssS'_usr_local_lib_python2_7_dist-packages_django_conf_locale___init__'
p1215
(dp1216
g6
(dp1217
g8
S'_usr_local_lib_python2_7_dist-packages_django_conf_locale___init__.html'
p1218
sg10
S'/usr/local/lib/python2.7/dist-packages/django/conf/locale/__init__'
p1219
sg12
g13
(g14
g15
NtRp1220
(dp1221
g18
I1
sg19
I0
sg20
I2
sg21
I0
sg22
I0
sg23
I0
sg24
I0
sbssg25
S'FS\x156Br\xf7A\x83\xab6\x8f\x92M\x0f\xbd'
p1222
ssS'_usr_local_lib_python2_7_dist-packages_django_test___init__'
p1223
(dp1224
g6
(dp1225
g8
S'_usr_local_lib_python2_7_dist-packages_django_test___init__.html'
p1226
sg10
S'/usr/local/lib/python2.7/dist-packages/django/test/__init__'
p1227
sg12
g13
(g14
g15
NtRp1228
(dp1229
g18
I1
sg19
I0
sg20
I3
sg21
I0
sg22
I0
sg23
I0
sg24
I0
sbssg25
S"k\xb8'p2\xfc8\xaf8\xa4\xad\xa4\xe9\x8c\x1c\xc3"
p1230
ssS'_usr_local_lib_python2_7_dist-packages_django_db_models_fields_subclassing'
p1231
(dp1232
g6
(dp1233
g8
S'_usr_local_lib_python2_7_dist-packages_django_db_models_fields_subclassing.html'
p1234
sg10
S'/usr/local/lib/python2.7/dist-packages/django/db/models/fields/subclassing'
p1235
sg12
g13
(g14
g15
NtRp1236
(dp1237
g18
I1
sg19
I0
sg20
I21
sg21
I0
sg22
I0
sg23
I14
sg24
I0
sbssg25
S' \xc8$\x1a\xca\xc6\xb9\n\xaew\xc3>\x8ej\x81b'
p1238
ssS'_usr_local_lib_python2_7_dist-packages_django_views_generic___init__'
p1239
(dp1240
g6
(dp1241
g8
S'_usr_local_lib_python2_7_dist-packages_django_views_generic___init__.html'
p1242
sg10
S'/usr/local/lib/python2.7/dist-packages/django/views/generic/__init__'
p1243
sg12
g13
(g14
g15
NtRp1244
(dp1245
g18
I1
sg19
I0
sg20
I7
sg21
I0
sg22
I0
sg23
I0
sg24
I0
sbssg25
S'o\xbf\xb3bL\xcaf\x03j\xe6\xf7\x07\xe7C\x11\x83'
p1246
ssS'_usr_local_lib_python2_7_dist-packages_django_utils_text'
p1247
(dp1248
g6
(dp1249
g8
S'_usr_local_lib_python2_7_dist-packages_django_utils_text.html'
p1250
sg10
S'/usr/local/lib/python2.7/dist-packages/django/utils/text'
p1251
sg12
g13
(g14
g15
NtRp1252
(dp1253
g18
I1
sg19
I0
sg20
I227
sg21
I0
sg22
I0
sg23
I161
sg24
I0
sbssg25
S'\xc6 5\x94\xf5\x03\x8b\xf2G(\x12\x0bR!@\x9d'
p1254
ssS'_usr_local_lib_python2_7_dist-packages_django_utils_encoding'
p1255
(dp1256
g6
(dp1257
g8
S'_usr_local_lib_python2_7_dist-packages_django_utils_encoding.html'
p1258
sg10
S'/usr/local/lib/python2.7/dist-packages/django/utils/encoding'
p1259
sg12
g13
(g14
g15
NtRp1260
(dp1261
g18
I1
sg19
I0
sg20
I108
sg21
I0
sg22
I0
sg23
I40
sg24
I0
sbssg25
S'\x9fU\x84\xcf\xdf\n\xd1t\x9e\xee%\x96\xc4\xee\xf7\x8e'
p1262
ssS'_usr_local_lib_python2_7_dist-packages_django_contrib_messages_storage_base'
p1263
(dp1264
g6
(dp1265
g8
S'_usr_local_lib_python2_7_dist-packages_django_contrib_messages_storage_base.html'
p1266
sg10
S'/usr/local/lib/python2.7/dist-packages/django/contrib/messages/storage/base'
p1267
sg12
g13
(g14
g15
NtRp1268
(dp1269
g18
I1
sg19
I0
sg20
I83
sg21
I0
sg22
I0
sg23
I47
sg24
I0
sbssg25
S'\xf4\xb0\x94\xa4P\xc3\xfa\xd7\xe3#`\xf7\x17G\x06p'
p1270
ssS'_usr_local_lib_python2_7_dist-packages_django_db_models_fields___init__'
p1271
(dp1272
g6
(dp1273
g8
S'_usr_local_lib_python2_7_dist-packages_django_db_models_fields___init__.html'
p1274
sg10
S'/usr/local/lib/python2.7/dist-packages/django/db/models/fields/__init__'
p1275
sg12
g13
(g14
g15
NtRp1276
(dp1277
g18
I1
sg19
I0
sg20
I837
sg21
I0
sg22
I0
sg23
I410
sg24
I0
sbssg25
S'\x16\x8a\xe26\xfdw\xfcd\xa6c\xd2>\x19\x80\x1d\xd4'
p1278
ssS'_usr_local_lib_python2_7_dist-packages_django_core_management_commands_flush'
p1279
(dp1280
g6
(dp1281
g8
S'_usr_local_lib_python2_7_dist-packages_django_core_management_commands_flush.html'
p1282
sg10
S'/usr/local/lib/python2.7/dist-packages/django/core/management/commands/flush'
p1283
sg12
g13
(g14
g15
NtRp1284
(dp1285
g18
I1
sg19
I0
sg20
I51
sg21
I0
sg22
I0
sg23
I5
sg24
I0
sbssg25
S'\x94\x83\x8e\x8c\x143\xad+bz\xbe\xec\xbe\xe6\xb10'
p1286
ssS'_usr_local_lib_python2_7_dist-packages_django_contrib_staticfiles_views'
p1287
(dp1288
g6
(dp1289
g8
S'_usr_local_lib_python2_7_dist-packages_django_contrib_staticfiles_views.html'
p1290
sg10
S'/usr/local/lib/python2.7/dist-packages/django/contrib/staticfiles/views'
p1291
sg12
g13
(g14
g15
NtRp1292
(dp1293
g18
I1
sg19
I0
sg20
I19
sg21
I0
sg22
I0
sg23
I10
sg24
I0
sbssg25
S'\xd1\xb9\x18\xaf\x15\xb8\xdd\x83\xc3\x8d(\xc2W2\xde\xcc'
p1294
ssS'_usr_local_lib_python2_7_dist-packages_django_db_models_sql_where'
p1295
(dp1296
g6
(dp1297
g8
S'_usr_local_lib_python2_7_dist-packages_django_db_models_sql_where.html'
p1298
sg10
S'/usr/local/lib/python2.7/dist-packages/django/db/models/sql/where'
p1299
sg12
g13
(g14
g15
NtRp1300
(dp1301
g18
I1
sg19
I0
sg20
I230
sg21
I0
sg22
I0
sg23
I104
sg24
I0
sbssg25
S'*\x8a\xe8_\xc7\xe6\xdf\x97*URw<\xed\xf2\xf0'
p1302
ssS'_usr_local_lib_python2_7_dist-packages_django_contrib_staticfiles_utils'
p1303
(dp1304
g6
(dp1305
g8
S'_usr_local_lib_python2_7_dist-packages_django_contrib_staticfiles_utils.html'
p1306
sg10
S'/usr/local/lib/python2.7/dist-packages/django/contrib/staticfiles/utils'
p1307
sg12
g13
(g14
g15
NtRp1308
(dp1309
g18
I1
sg19
I0
sg20
I37
sg21
I0
sg22
I0
sg23
I26
sg24
I0
sbssg25
S'=\xf0\xed\xf8\xaayG\\\xfel\x04_w0T\xd4'
p1310
ssS'_usr_local_lib_python2_7_dist-packages_django_template_loaders_cached'
p1311
(dp1312
g6
(dp1313
g8
S'_usr_local_lib_python2_7_dist-packages_django_template_loaders_cached.html'
p1314
sg10
S'/usr/local/lib/python2.7/dist-packages/django/template/loaders/cached'
p1315
sg12
g13
(g14
g15
NtRp1316
(dp1317
g18
I1
sg19
I0
sg20
I42
sg21
I0
sg22
I0
sg23
I31
sg24
I0
sbssg25
S'\xc2\xe7+\x1d\x84\x9e\x8dO\xd8*\x80\xaf\xff\x1e;O'
p1318
ssS'_usr_local_lib_python2_7_dist-packages_django_utils_unittest_util'
p1319
(dp1320
g6
(dp1321
g8
S'_usr_local_lib_python2_7_dist-packages_django_utils_unittest_util.html'
p1322
sg10
S'/usr/local/lib/python2.7/dist-packages/django/utils/unittest/util'
p1323
sg12
g13
(g14
g15
NtRp1324
(dp1325
g18
I1
sg19
I0
sg20
I74
sg21
I0
sg22
I0
sg23
I67
sg24
I0
sbssg25
S'\xb2x_,\x84YY\x16\x91\xcb5(\xe8\x1c<\t'
p1326
ssS'_usr_local_lib_python2_7_dist-packages_django_db_models_sql___init__'
p1327
(dp1328
g6
(dp1329
g8
S'_usr_local_lib_python2_7_dist-packages_django_db_models_sql___init__.html'
p1330
sg10
S'/usr/local/lib/python2.7/dist-packages/django/db/models/sql/__init__'
p1331
sg12
g13
(g14
g15
NtRp1332
(dp1333
g18
I1
sg19
I0
sg20
I6
sg21
I0
sg22
I0
sg23
I0
sg24
I0
sbssg25
S'\xea\xf8\xff\x94\xe8\x06\xd7@N\x8e\xb9\x9b)&=f'
p1334
ssS'_usr_local_lib_python2_7_dist-packages_django_db_models_fields_proxy'
p1335
(dp1336
g6
(dp1337
g8
S'_usr_local_lib_python2_7_dist-packages_django_db_models_fields_proxy.html'
p1338
sg10
S'/usr/local/lib/python2.7/dist-packages/django/db/models/fields/proxy'
p1339
sg12
g13
(g14
g15
NtRp1340
(dp1341
g18
I1
sg19
I0
sg20
I6
sg21
I0
sg22
I0
sg23
I3
sg24
I0
sbssg25
S'\xaf:\xd7\xa5\xadun\x1b\xb7\x141\x81\x80j\x94\xe6'
p1342
ssS'_usr_local_lib_python2_7_dist-packages_django_forms_formsets'
p1343
(dp1344
g6
(dp1345
g8
S'_usr_local_lib_python2_7_dist-packages_django_forms_formsets.html'
p1346
sg10
S'/usr/local/lib/python2.7/dist-packages/django/forms/formsets'
p1347
sg12
g13
(g14
g15
NtRp1348
(dp1349
g18
I1
sg19
I0
sg20
I214
sg21
I0
sg22
I0
sg23
I155
sg24
I0
sbssg25
S'\xdb\x02\x03;\xed\xb7eN\x80:\x19\xab!}\xf3&'
p1350
ssS'_usr_local_lib_python2_7_dist-packages_django_utils_six'
p1351
(dp1352
g6
(dp1353
g8
S'_usr_local_lib_python2_7_dist-packages_django_utils_six.html'
p1354
sg10
S'/usr/local/lib/python2.7/dist-packages/django/utils/six'
p1355
sg12
g13
(g14
g15
NtRp1356
(dp1357
g18
I1
sg19
I0
sg20
I311
sg21
I0
sg22
I0
sg23
I136
sg24
I0
sbssg25
S"\xc5rp0\xd9'\x12m\x95\x8d\x8a\xa5\xb3\x05q\x11"
p1358
ssS'_usr_local_lib_python2_7_dist-packages_django_views_static'
p1359
(dp1360
g6
(dp1361
g8
S'_usr_local_lib_python2_7_dist-packages_django_views_static.html'
p1362
sg10
S'/usr/local/lib/python2.7/dist-packages/django/views/static'
p1363
sg12
g13
(g14
g15
NtRp1364
(dp1365
g18
I1
sg19
I0
sg20
I73
sg21
I0
sg22
I0
sg23
I57
sg24
I0
sbssg25
S'a\x8dV\xfb\xce\x05\xb1\xfb\xbe#\xfe\xe9\xd9\xa3\x8f\xb0'
p1366
ssS'_usr_local_lib_python2_7_dist-packages_django_contrib_admin_forms'
p1367
(dp1368
g6
(dp1369
g8
S'_usr_local_lib_python2_7_dist-packages_django_contrib_admin_forms.html'
p1370
sg10
S'/usr/local/lib/python2.7/dist-packages/django/contrib/admin/forms'
p1371
sg12
g13
(g14
g15
NtRp1372
(dp1373
g18
I1
sg19
I0
sg20
I20
sg21
I0
sg22
I0
sg23
I11
sg24
I0
sbssg25
S'\xbf\xbda\xd9\xc4V\xf4\x17~0,*q\x00z\xfc'
p1374
ssS'_usr_local_lib_python2_7_dist-packages_django_db_backends_sqlite3_introspection'
p1375
(dp1376
g6
(dp1377
g8
S'_usr_local_lib_python2_7_dist-packages_django_db_backends_sqlite3_introspection.html'
p1378
sg10
S'/usr/local/lib/python2.7/dist-packages/django/db/backends/sqlite3/introspection'
p1379
sg12
g13
(g14
g15
NtRp1380
(dp1381
g18
I1
sg19
I0
sg20
I92
sg21
I0
sg22
I0
sg23
I74
sg24
I0
sbssg25
S'\xaa\xa8K\xca?\xa4\xf2\xd94\xa9,)e\xceoE'
p1382
ssS'Soft_Clei___init__'
p1383
(dp1384
g6
(dp1385
g8
S'Soft_Clei___init__.html'
p1386
sg10
S'Soft_Clei/__init__'
p1387
sg12
g13
(g14
g15
NtRp1388
(dp1389
g18
I1
sg19
I0
sg20
I0
sg21
I0
sg22
I0
sg23
I0
sg24
I0
sbssg25
S'\xb0\xc8pN\xaf>\xa0\xbaz\x144\xe0A9\xb8?'
p1390
ssS'_usr_local_lib_python2_7_dist-packages_django_template_loaders_filesystem'
p1391
(dp1392
g6
(dp1393
g8
S'_usr_local_lib_python2_7_dist-packages_django_template_loaders_filesystem.html'
p1394
sg10
S'/usr/local/lib/python2.7/dist-packages/django/template/loaders/filesystem'
p1395
sg12
g13
(g14
g15
NtRp1396
(dp1397
g18
I1
sg19
I0
sg20
I29
sg21
I0
sg22
I0
sg23
I8
sg24
I0
sbssg25
S'\xc2\xaesL2\xf8\x1e\x15\\,\xe8\x82\x16\x9d\xed\xc1'
p1398
ssS'_usr_local_lib_python2_7_dist-packages_django_db_backends___init__'
p1399
(dp1400
g6
(dp1401
g8
S'_usr_local_lib_python2_7_dist-packages_django_db_backends___init__.html'
p1402
sg10
S'/usr/local/lib/python2.7/dist-packages/django/db/backends/__init__'
p1403
sg12
g13
(g14
g15
NtRp1404
(dp1405
g18
I1
sg19
I0
sg20
I542
sg21
I0
sg22
I0
sg23
I219
sg24
I0
sbssg25
S'\x061\x92d\xbc\xa2i\xa5g\xe9\xfb\xb2 J\t{'
p1406
ssS'_usr_local_lib_python2_7_dist-packages_django_core_management_commands___init__'
p1407
(dp1408
g6
(dp1409
g8
S'_usr_local_lib_python2_7_dist-packages_django_core_management_commands___init__.html'
p1410
sg10
S'/usr/local/lib/python2.7/dist-packages/django/core/management/commands/__init__'
p1411
sg12
g13
(g14
g15
NtRp1412
(dp1413
g18
I1
sg19
I0
sg20
I0
sg21
I0
sg22
I0
sg23
I0
sg24
I0
sbssg25
S'\xb0\xc8pN\xaf>\xa0\xbaz\x144\xe0A9\xb8?'
p1414
ssS'_usr_local_lib_python2_7_dist-packages_django_views_generic_dates'
p1415
(dp1416
g6
(dp1417
g8
S'_usr_local_lib_python2_7_dist-packages_django_views_generic_dates.html'
p1418
sg10
S'/usr/local/lib/python2.7/dist-packages/django/views/generic/dates'
p1419
sg12
g13
(g14
g15
NtRp1420
(dp1421
g18
I1
sg19
I0
sg20
I320
sg21
I0
sg22
I0
sg23
I217
sg24
I0
sbssg25
S'\x898k\xe5\x88\xd1\x03\x92F\xbbS\xbb;N\x90\xad'
p1422
ssS'_usr_local_lib_python2_7_dist-packages_django_utils_synch'
p1423
(dp1424
g6
(dp1425
g8
S'_usr_local_lib_python2_7_dist-packages_django_utils_synch.html'
p1426
sg10
S'/usr/local/lib/python2.7/dist-packages/django/utils/synch'
p1427
sg12
g13
(g14
g15
NtRp1428
(dp1429
g18
I1
sg19
I0
sg20
I59
sg21
I0
sg22
I0
sg23
I41
sg24
I0
sbssg25
S'\xe4\xa3PBK-)\xfe}"\xa7\xb5\x01\x8cz\x8d'
p1430
ssS'_usr_local_lib_python2_7_dist-packages_django_utils_dateformat'
p1431
(dp1432
g6
(dp1433
g8
S'_usr_local_lib_python2_7_dist-packages_django_utils_dateformat.html'
p1434
sg10
S'/usr/local/lib/python2.7/dist-packages/django/utils/dateformat'
p1435
sg12
g13
(g14
g15
NtRp1436
(dp1437
g18
I1
sg19
I0
sg20
I181
sg21
I0
sg22
I0
sg23
I119
sg24
I0
sbssg25
S"\x1c:\xaa\xb7\x03\xba\xe8T\xc0+\xc5=\x03G'\xda"
p1438
ssS'_usr_local_lib_python2_7_dist-packages_django_db_backends_sqlite3_client'
p1439
(dp1440
g6
(dp1441
g8
S'_usr_local_lib_python2_7_dist-packages_django_db_backends_sqlite3_client.html'
p1442
sg10
S'/usr/local/lib/python2.7/dist-packages/django/db/backends/sqlite3/client'
p1443
sg12
g13
(g14
g15
NtRp1444
(dp1445
g18
I1
sg19
I0
sg20
I10
sg21
I0
sg22
I0
sg23
I4
sg24
I0
sbssg25
S'\xc1M\xc7\x1f ySpt\x02\xcb\x82\xbeT\x1c\xaa'
p1446
ssS'_usr_local_lib_python2_7_dist-packages_django_utils___init__'
p1447
(dp1448
g6
(dp1449
g8
S'_usr_local_lib_python2_7_dist-packages_django_utils___init__.html'
p1450
sg10
S'/usr/local/lib/python2.7/dist-packages/django/utils/__init__'
p1451
sg12
g13
(g14
g15
NtRp1452
(dp1453
g18
I1
sg19
I0
sg20
I0
sg21
I0
sg22
I0
sg23
I0
sg24
I0
sbssg25
S'\xb0\xc8pN\xaf>\xa0\xbaz\x144\xe0A9\xb8?'
p1454
ssS'evento_urls'
p1455
(dp1456
g6
(dp1457
g8
S'evento_urls.html'
p1458
sg10
S'evento/urls'
p1459
sg12
g13
(g14
g15
NtRp1460
(dp1461
g18
I1
sg19
I0
sg20
I3
sg21
I0
sg22
I0
sg23
I0
sg24
I0
sbssg25
S'\x9f\xec\xeeGT^ zd\xff\x85\xc6!\x95\x98\x10'
p1462
ssS'_usr_local_lib_python2_7_dist-packages_django_test_testcases'
p1463
(dp1464
g6
(dp1465
g8
S'_usr_local_lib_python2_7_dist-packages_django_test_testcases.html'
p1466
sg10
S'/usr/local/lib/python2.7/dist-packages/django/test/testcases'
p1467
sg12
g13
(g14
g15
NtRp1468
(dp1469
g18
I1
sg19
I0
sg20
I609
sg21
I0
sg22
I0
sg23
I479
sg24
I0
sbssg25
S'\x9a4@bol^@\xa7 a\x846\xea\x80\xca'
p1470
ssS'_usr_local_lib_python2_7_dist-packages_django_contrib_auth_hashers'
p1471
(dp1472
g6
(dp1473
g8
S'_usr_local_lib_python2_7_dist-packages_django_contrib_auth_hashers.html'
p1474
sg10
S'/usr/local/lib/python2.7/dist-packages/django/contrib/auth/hashers'
p1475
sg12
g13
(g14
g15
NtRp1476
(dp1477
g18
I1
sg19
I0
sg20
I247
sg21
I0
sg22
I0
sg23
I160
sg24
I0
sbssg25
S'B\xc2\xfa\x8cxA+Zu"\x06r\xca\x8f\x84\xcd'
p1478
ssS'_usr_local_lib_python2_7_dist-packages_django_forms_fields'
p1479
(dp1480
g6
(dp1481
g8
S'_usr_local_lib_python2_7_dist-packages_django_forms_fields.html'
p1482
sg10
S'/usr/local/lib/python2.7/dist-packages/django/forms/fields'
p1483
sg12
g13
(g14
g15
NtRp1484
(dp1485
g18
I1
sg19
I0
sg20
I640
sg21
I0
sg22
I0
sg23
I427
sg24
I0
sbssg25
S"_\x7ft\x8bpWpF\x8c]$'\xc2n!\x1c"
p1486
ssS'_usr_local_lib_python2_7_dist-packages_django_contrib_messages_storage___init__'
p1487
(dp1488
g6
(dp1489
g8
S'_usr_local_lib_python2_7_dist-packages_django_contrib_messages_storage___init__.html'
p1490
sg10
S'/usr/local/lib/python2.7/dist-packages/django/contrib/messages/storage/__init__'
p1491
sg12
g13
(g14
g15
NtRp1492
(dp1493
g18
I1
sg19
I0
sg20
I3
sg21
I0
sg22
I0
sg23
I0
sg24
I0
sbssg25
S'\xdc\x1e\xa7\xcc\x01\xb2<+\xbf\x139Q\xcan\xff\xf8'
p1494
ssS'_usr_local_lib_python2_7_dist-packages_django_utils_unittest___init__'
p1495
(dp1496
g6
(dp1497
g8
S'_usr_local_lib_python2_7_dist-packages_django_utils_unittest___init__.html'
p1498
sg10
S'/usr/local/lib/python2.7/dist-packages/django/utils/unittest/__init__'
p1499
sg12
g13
(g14
g15
NtRp1500
(dp1501
g18
I1
sg19
I0
sg20
I23
sg21
I0
sg22
I0
sg23
I17
sg24
I0
sbssg25
S'\xccP\x9c\xf4\x9b(\x7f#1\xb9\xe3X7\xb4\xe6B'
p1502
ssS'_usr_local_lib_python2_7_dist-packages_django_contrib___init__'
p1503
(dp1504
g6
(dp1505
g8
S'_usr_local_lib_python2_7_dist-packages_django_contrib___init__.html'
p1506
sg10
S'/usr/local/lib/python2.7/dist-packages/django/contrib/__init__'
p1507
sg12
g13
(g14
g15
NtRp1508
(dp1509
g18
I1
sg19
I0
sg20
I0
sg21
I0
sg22
I0
sg23
I0
sg24
I0
sbssg25
S'\xb0\xc8pN\xaf>\xa0\xbaz\x144\xe0A9\xb8?'
p1510
ssS'_usr_local_lib_python2_7_dist-packages_django_core_servers___init__'
p1511
(dp1512
g6
(dp1513
g8
S'_usr_local_lib_python2_7_dist-packages_django_core_servers___init__.html'
p1514
sg10
S'/usr/local/lib/python2.7/dist-packages/django/core/servers/__init__'
p1515
sg12
g13
(g14
g15
NtRp1516
(dp1517
g18
I1
sg19
I0
sg20
I0
sg21
I0
sg22
I0
sg23
I0
sg24
I0
sbssg25
S'\xb0\xc8pN\xaf>\xa0\xbaz\x144\xe0A9\xb8?'
p1518
ssS'_usr_local_lib_python2_7_dist-packages_django_contrib_contenttypes_views'
p1519
(dp1520
g6
(dp1521
g8
S'_usr_local_lib_python2_7_dist-packages_django_contrib_contenttypes_views.html'
p1522
sg10
S'/usr/local/lib/python2.7/dist-packages/django/contrib/contenttypes/views'
p1523
sg12
g13
(g14
g15
NtRp1524
(dp1525
g18
I1
sg19
I0
sg20
I50
sg21
I0
sg22
I0
sg23
I43
sg24
I0
sbssg25
S'\x82\x16*\xd8\x0b\xc0X\xe4\xebc\xe3\x80\xd4Y6h'
p1526
ssS'_usr_local_lib_python2_7_dist-packages_django_core_management___init__'
p1527
(dp1528
g6
(dp1529
g8
S'_usr_local_lib_python2_7_dist-packages_django_core_management___init__.html'
p1530
sg10
S'/usr/local/lib/python2.7/dist-packages/django/core/management/__init__'
p1531
sg12
g13
(g14
g15
NtRp1532
(dp1533
g18
I1
sg19
I0
sg20
I185
sg21
I0
sg22
I0
sg23
I78
sg24
I0
sbssg25
S'/\xae\xe3\xd3|7\xfe\x19\xf9d\x1c\xf5\xea\xd1^\x12'
p1534
ssS'clei_tests'
p1535
(dp1536
g564
(dp1537
g566
S'clei_tests.html'
p1538
sg568
S'clei/tests'
p1539
sg570
g13
(g14
g15
NtRp1540
(dp1541
g18
I1
sg19
I0
sg20
I1
sg21
I0
sg22
I0
sg23
I0
sg24
I0
sbssg573
S'\x97e\xc4\xf4\xb6\x04\xfd<\xae\xb2Y\x0e\xa0+\xf2\xcc'
p1542
ssS'_usr_local_lib_python2_7_dist-packages_django_contrib_sessions_exceptions'
p1543
(dp1544
g6
(dp1545
g8
S'_usr_local_lib_python2_7_dist-packages_django_contrib_sessions_exceptions.html'
p1546
sg10
S'/usr/local/lib/python2.7/dist-packages/django/contrib/sessions/exceptions'
p1547
sg12
g13
(g14
g15
NtRp1548
(dp1549
g18
I1
sg19
I0
sg20
I5
sg21
I0
sg22
I0
sg23
I0
sg24
I0
sbssg25
S'\xb5o\x11z\x9e\x87\xc6\tc\xa3\xf8C\x84\xa9"Y'
p1550
ssS'_usr_local_lib_python2_7_dist-packages_django_views_generic_base'
p1551
(dp1552
g6
(dp1553
g8
S'_usr_local_lib_python2_7_dist-packages_django_views_generic_base.html'
p1554
sg10
S'/usr/local/lib/python2.7/dist-packages/django/views/generic/base'
p1555
sg12
g13
(g14
g15
NtRp1556
(dp1557
g18
I1
sg19
I0
sg20
I105
sg21
I0
sg22
I0
sg23
I57
sg24
I0
sbssg25
S'\x18\xa4\x1e`\x98\xd9X!]\xf1\x81T7\xd7\xf0\xf8'
p1558
ssS'asistente_tests'
p1559
(dp1560
g564
(dp1561
g566
S'asistente_tests.html'
p1562
sg568
S'asistente/tests'
p1563
sg570
g13
(g14
g15
NtRp1564
(dp1565
g18
I1
sg19
I0
sg20
I1
sg21
I0
sg22
I0
sg23
I0
sg24
I0
sbssg573
S'\x97e\xc4\xf4\xb6\x04\xfd<\xae\xb2Y\x0e\xa0+\xf2\xcc'
p1566
ssS'_usr_local_lib_python2_7_dist-packages_django_contrib_messages_models'
p1567
(dp1568
g6
(dp1569
g8
S'_usr_local_lib_python2_7_dist-packages_django_contrib_messages_models.html'
p1570
sg10
S'/usr/local/lib/python2.7/dist-packages/django/contrib/messages/models'
p1571
sg12
g13
(g14
g15
NtRp1572
(dp1573
g18
I1
sg19
I0
sg20
I0
sg21
I0
sg22
I0
sg23
I0
sg24
I0
sbssg25
S'}\xf8)\x98N\x1e\xef\xd8Ky\x9f\x03d\x14L\xac'
p1574
ssS'_usr_local_lib_python2_7_dist-packages_django_views_decorators___init__'
p1575
(dp1576
g6
(dp1577
g8
S'_usr_local_lib_python2_7_dist-packages_django_views_decorators___init__.html'
p1578
sg10
S'/usr/local/lib/python2.7/dist-packages/django/views/decorators/__init__'
p1579
sg12
g13
(g14
g15
NtRp1580
(dp1581
g18
I1
sg19
I0
sg20
I0
sg21
I0
sg22
I0
sg23
I0
sg24
I0
sbssg25
S'\xb0\xc8pN\xaf>\xa0\xbaz\x144\xe0A9\xb8?'
p1582
ssS'_usr_local_lib_python2_7_dist-packages_django_contrib_staticfiles_templatetags_staticfiles'
p1583
(dp1584
g6
(dp1585
g8
S'_usr_local_lib_python2_7_dist-packages_django_contrib_staticfiles_templatetags_staticfiles.html'
p1586
sg10
S'/usr/local/lib/python2.7/dist-packages/django/contrib/staticfiles/templatetags/staticfiles'
p1587
sg12
g13
(g14
g15
NtRp1588
(dp1589
g18
I1
sg19
I0
sg20
I12
sg21
I0
sg22
I0
sg23
I1
sg24
I0
sbssg25
S'\xa1\x95-\x86\xbd\xdd\xa9(>d\xa7\xad\xdakPs'
p1590
ssS'_usr_local_lib_python2_7_dist-packages_django_dispatch_dispatcher'
p1591
(dp1592
g6
(dp1593
g8
S'_usr_local_lib_python2_7_dist-packages_django_dispatch_dispatcher.html'
p1594
sg10
S'/usr/local/lib/python2.7/dist-packages/django/dispatch/dispatcher'
p1595
sg12
g13
(g14
g15
NtRp1596
(dp1597
g18
I1
sg19
I0
sg20
I122
sg21
I0
sg22
I0
sg23
I22
sg24
I0
sbssg25
S'}\xac\n\xcc\xc4lN>..\x90\x87\x8f\xa5\x151'
p1598
ssS'_usr_local_lib_python2_7_dist-packages_django_utils_timesince'
p1599
(dp1600
g6
(dp1601
g8
S'_usr_local_lib_python2_7_dist-packages_django_utils_timesince.html'
p1602
sg10
S'/usr/local/lib/python2.7/dist-packages/django/utils/timesince'
p1603
sg12
g13
(g14
g15
NtRp1604
(dp1605
g18
I1
sg19
I0
sg20
I30
sg21
I0
sg22
I0
sg23
I23
sg24
I0
sbssg25
S'\xd4\xb1\x14\xca\x17\xd3\\z\x18^\x83\xb6\xbc\xc1\xee\xbe'
p1606
ssS'_usr_local_lib_python2_7_dist-packages_django_core_signals'
p1607
(dp1608
g6
(dp1609
g8
S'_usr_local_lib_python2_7_dist-packages_django_core_signals.html'
p1610
sg10
S'/usr/local/lib/python2.7/dist-packages/django/core/signals'
p1611
sg12
g13
(g14
g15
NtRp1612
(dp1613
g18
I1
sg19
I0
sg20
I4
sg21
I0
sg22
I0
sg23
I0
sg24
I0
sbssg25
S'\xa8\x92\x82\x13=\x82/\x06\xba\xb2\xa6\xad\xc4o\x81\xc2'
p1614
ssS'_usr_local_lib_python2_7_dist-packages_django_views___init__'
p1615
(dp1616
g6
(dp1617
g8
S'_usr_local_lib_python2_7_dist-packages_django_views___init__.html'
p1618
sg10
S'/usr/local/lib/python2.7/dist-packages/django/views/__init__'
p1619
sg12
g13
(g14
g15
NtRp1620
(dp1621
g18
I1
sg19
I0
sg20
I0
sg21
I0
sg22
I0
sg23
I0
sg24
I0
sbssg25
S'\xb0\xc8pN\xaf>\xa0\xbaz\x144\xe0A9\xb8?'
p1622
ssS'Soft_Clei_settings'
p1623
(dp1624
g6
(dp1625
g8
S'Soft_Clei_settings.html'
p1626
sg10
S'Soft_Clei/settings'
p1627
sg12
g13
(g14
g15
NtRp1628
(dp1629
g18
I1
sg19
I0
sg20
I35
sg21
I0
sg22
I0
sg23
I0
sg24
I0
sbssg25
S'\xd5\xaf\xba\x859\x97^"\x06\'\xf0\x8d\x82\xa8\xf6y'
p1630
ssS'_usr_local_lib_python2_7_dist-packages_django_contrib_admin_helpers'
p1631
(dp1632
g6
(dp1633
g8
S'_usr_local_lib_python2_7_dist-packages_django_contrib_admin_helpers.html'
p1634
sg10
S'/usr/local/lib/python2.7/dist-packages/django/contrib/admin/helpers'
p1635
sg12
g13
(g14
g15
NtRp1636
(dp1637
g18
I1
sg19
I0
sg20
I243
sg21
I0
sg22
I0
sg23
I178
sg24
I0
sbssg25
S'\xa3\xbe\xf3\x1cq\xca\xcfZ\xa99\xfe\xb0g\xd3_\xbe'
p1638
ssS'_usr_local_lib_python2_7_dist-packages_django_template_defaultfilters'
p1639
(dp1640
g6
(dp1641
g8
S'_usr_local_lib_python2_7_dist-packages_django_template_defaultfilters.html'
p1642
sg10
S'/usr/local/lib/python2.7/dist-packages/django/template/defaultfilters'
p1643
sg12
g13
(g14
g15
NtRp1644
(dp1645
g18
I1
sg19
I0
sg20
I454
sg21
I0
sg22
I0
sg23
I324
sg24
I0
sbssg25
S'&Ig\xa97\xfb\x9e\xa4v{:8u#\xb7\xe6'
p1646
ssS'clei_models'
p1647
(dp1648
g6
(dp1649
g8
S'clei_models.html'
p1650
sg10
S'clei/models'
p1651
sg12
g13
(g14
g15
NtRp1652
(dp1653
g18
I1
sg19
I0
sg20
I16
sg21
I0
sg22
I0
sg23
I1
sg24
I0
sbssg25
S"\xb3\xee'\xc9\xbfm\x199\xba\xa9C\x0e\x08\x9c\x1e\xb6"
p1654
ssS'_usr_local_lib_python2_7_dist-packages_django_utils_datastructures'
p1655
(dp1656
g6
(dp1657
g8
S'_usr_local_lib_python2_7_dist-packages_django_utils_datastructures.html'
p1658
sg10
S'/usr/local/lib/python2.7/dist-packages/django/utils/datastructures'
p1659
sg12
g13
(g14
g15
NtRp1660
(dp1661
g18
I1
sg19
I0
sg20
I307
sg21
I0
sg22
I0
sg23
I165
sg24
I0
sbssg25
S'\xc4\x0c\x9ca\xd9\xad\x89\xedv\x04\xd21\x81v\xe9\xa9'
p1662
ssS'_usr_local_lib_python2_7_dist-packages_django_utils_importlib'
p1663
(dp1664
g6
(dp1665
g8
S'_usr_local_lib_python2_7_dist-packages_django_utils_importlib.html'
p1666
sg10
S'/usr/local/lib/python2.7/dist-packages/django/utils/importlib'
p1667
sg12
g13
(g14
g15
NtRp1668
(dp1669
g18
I1
sg19
I0
sg20
I26
sg21
I0
sg22
I0
sg23
I7
sg24
I0
sbssg25
S'j\xd1\x98K#\xf3}\xed\xbb\x9c0A\x93\x95\x07f'
p1670
ssS'articulo___init__'
p1671
(dp1672
g6
(dp1673
g8
S'articulo___init__.html'
p1674
sg10
S'articulo/__init__'
p1675
sg12
g13
(g14
g15
NtRp1676
(dp1677
g18
I1
sg19
I0
sg20
I0
sg21
I0
sg22
I0
sg23
I0
sg24
I0
sbssg25
S'\xb0\xc8pN\xaf>\xa0\xbaz\x144\xe0A9\xb8?'
p1678
ssS'_usr_local_lib_python2_7_dist-packages_django_views_decorators_cache'
p1679
(dp1680
g6
(dp1681
g8
S'_usr_local_lib_python2_7_dist-packages_django_views_decorators_cache.html'
p1682
sg10
S'/usr/local/lib/python2.7/dist-packages/django/views/decorators/cache'
p1683
sg12
g13
(g14
g15
NtRp1684
(dp1685
g18
I1
sg19
I0
sg20
I27
sg21
I0
sg22
I0
sg23
I18
sg24
I0
sbssg25
S'n\x0b\xa0\xa2\xf9\xd9\x17[W<)\x86\xd6\x971\xfa'
p1686
ssS'persona___init__'
p1687
(dp1688
g6
(dp1689
g8
S'persona___init__.html'
p1690
sg10
S'persona/__init__'
p1691
sg12
g13
(g14
g15
NtRp1692
(dp1693
g18
I1
sg19
I0
sg20
I0
sg21
I0
sg22
I0
sg23
I0
sg24
I0
sbssg25
S'\xb0\xc8pN\xaf>\xa0\xbaz\x144\xe0A9\xb8?'
p1694
ssS'_usr_local_lib_python2_7_dist-packages_django_db_models_deletion'
p1695
(dp1696
g6
(dp1697
g8
S'_usr_local_lib_python2_7_dist-packages_django_db_models_deletion.html'
p1698
sg10
S'/usr/local/lib/python2.7/dist-packages/django/db/models/deletion'
p1699
sg12
g13
(g14
g15
NtRp1700
(dp1701
g18
I1
sg19
I0
sg20
I152
sg21
I0
sg22
I0
sg23
I126
sg24
I0
sbssg25
S"\\PCk\x1d\xfd!\xd2\xf3S'\x83}\x8e\xf0?"
p1702
ssS'_usr_local_lib_python2_7_dist-packages_django_core_files_uploadhandler'
p1703
(dp1704
g6
(dp1705
g8
S'_usr_local_lib_python2_7_dist-packages_django_core_files_uploadhandler.html'
p1706
sg10
S'/usr/local/lib/python2.7/dist-packages/django/core/files/uploadhandler'
p1707
sg12
g13
(g14
g15
NtRp1708
(dp1709
g18
I1
sg19
I0
sg20
I76
sg21
I0
sg22
I0
sg23
I40
sg24
I0
sbssg25
S'\xc3D\x94\xfd\xd2\x17y\x1fn\xf83\x8c\x07\x16Q6'
p1710
ssS'_usr_local_lib_python2_7_dist-packages_django_forms___init__'
p1711
(dp1712
g6
(dp1713
g8
S'_usr_local_lib_python2_7_dist-packages_django_forms___init__.html'
p1714
sg10
S'/usr/local/lib/python2.7/dist-packages/django/forms/__init__'
p1715
sg12
g13
(g14
g15
NtRp1716
(dp1717
g18
I1
sg19
I0
sg20
I6
sg21
I0
sg22
I0
sg23
I0
sg24
I0
sbssg25
S'\xc0W\xbbPs{\xc2\xd0\xe5\xe8V\x98\x16>\xa0\xa8'
p1718
ssS'_usr_local_lib_python2_7_dist-packages_django_db_models_related'
p1719
(dp1720
g6
(dp1721
g8
S'_usr_local_lib_python2_7_dist-packages_django_db_models_related.html'
p1722
sg10
S'/usr/local/lib/python2.7/dist-packages/django/db/models/related'
p1723
sg12
g13
(g14
g15
NtRp1724
(dp1725
g18
I1
sg19
I0
sg20
I35
sg21
I0
sg22
I0
sg23
I13
sg24
I0
sbssg25
S'S\x8e\xe6\xa6|~\xb32\xb2\xb4\xb4\x88[\xf5\xe7\x89'
p1726
ssS'_usr_local_lib_python2_7_dist-packages_django_contrib_sessions_backends_base'
p1727
(dp1728
g6
(dp1729
g8
S'_usr_local_lib_python2_7_dist-packages_django_contrib_sessions_backends_base.html'
p1730
sg10
S'/usr/local/lib/python2.7/dist-packages/django/contrib/sessions/backends/base'
p1731
sg12
g13
(g14
g15
NtRp1732
(dp1733
g18
I1
sg19
I0
sg20
I181
sg21
I0
sg22
I0
sg23
I116
sg24
I0
sbssg25
S'\xd5\x00\xcf\x02\xe6Sf\xb2\xceB\x00\xef\xd4\x97\xe6\x97'
p1734
ssS'_usr_local_lib_python2_7_dist-packages_django_core_serializers_pyyaml'
p1735
(dp1736
g6
(dp1737
g8
S'_usr_local_lib_python2_7_dist-packages_django_core_serializers_pyyaml.html'
p1738
sg10
S'/usr/local/lib/python2.7/dist-packages/django/core/serializers/pyyaml'
p1739
sg12
g13
(g14
g15
NtRp1740
(dp1741
g18
I1
sg19
I0
sg20
I41
sg21
I0
sg22
I0
sg23
I39
sg24
I0
sbssg25
S'\xb4\xbd\xc6\xc9#\xefi\xf4d\xcd\xf1N,\x02J/'
p1742
ssS'_usr_local_lib_python2_7_dist-packages_django_core_handlers_wsgi'
p1743
(dp1744
g6
(dp1745
g8
S'_usr_local_lib_python2_7_dist-packages_django_core_handlers_wsgi.html'
p1746
sg10
S'/usr/local/lib/python2.7/dist-packages/django/core/handlers/wsgi'
p1747
sg12
g13
(g14
g15
NtRp1748
(dp1749
g18
I1
sg19
I0
sg20
I154
sg21
I0
sg22
I0
sg23
I77
sg24
I0
sbssg25
S'\xb9]A\x92q\xcb\x1a\xf9#\x8a\x1c\xb3+\x1c\x04c'
p1750
ssS'_usr_local_lib_python2_7_dist-packages_django_core_serializers_python'
p1751
(dp1752
g6
(dp1753
g8
S'_usr_local_lib_python2_7_dist-packages_django_core_serializers_python.html'
p1754
sg10
S'/usr/local/lib/python2.7/dist-packages/django/core/serializers/python'
p1755
sg12
g13
(g14
g15
NtRp1756
(dp1757
g18
I1
sg19
I0
sg20
I86
sg21
I0
sg22
I0
sg23
I67
sg24
I0
sbssg25
S'\t%\xd7\xc8\x1c\xcdN\xc9\xf6\xcb\xb5\x9au\xa1P\x9f'
p1758
ssS'_usr_local_lib_python2_7_dist-packages_django_db_backends_util'
p1759
(dp1760
g6
(dp1761
g8
S'_usr_local_lib_python2_7_dist-packages_django_db_backends_util.html'
p1762
sg10
S'/usr/local/lib/python2.7/dist-packages/django/db/backends/util'
p1763
sg12
g13
(g14
g15
NtRp1764
(dp1765
g18
I1
sg19
I0
sg20
I110
sg21
I0
sg22
I0
sg23
I68
sg24
I0
sbssg25
S'i]*\x98\xb8c\xb8\t\xca5A\xb8\nQ\xe9\xa7'
p1766
ssS'_usr_local_lib_python2_7_dist-packages_django_template_loaders_app_directories'
p1767
(dp1768
g6
(dp1769
g8
S'_usr_local_lib_python2_7_dist-packages_django_template_loaders_app_directories.html'
p1770
sg10
S'/usr/local/lib/python2.7/dist-packages/django/template/loaders/app_directories'
p1771
sg12
g13
(g14
g15
NtRp1772
(dp1773
g18
I1
sg19
I0
sg20
I43
sg21
I0
sg22
I0
sg23
I18
sg24
I0
sbssg25
S'\x83\xd9\xcep\xd5\xb8\xb4Gt\xe3\x83\xd2x\x94\xde\xad'
p1774
ssS'_usr_local_lib_python2_7_dist-packages_django_conf_urls_static'
p1775
(dp1776
g6
(dp1777
g8
S'_usr_local_lib_python2_7_dist-packages_django_conf_urls_static.html'
p1778
sg10
S'/usr/local/lib/python2.7/dist-packages/django/conf/urls/static'
p1779
sg12
g13
(g14
g15
NtRp1780
(dp1781
g18
I1
sg19
I0
sg20
I10
sg21
I0
sg22
I0
sg23
I5
sg24
I0
sbssg25
S'\xed\x88r3\x1aA\x8er\x8e\r\xf4\xecf\x195w'
p1782
ssS'_usr_local_lib_python2_7_dist-packages_django_contrib_sessions_models'
p1783
(dp1784
g6
(dp1785
g8
S'_usr_local_lib_python2_7_dist-packages_django_contrib_sessions_models.html'
p1786
sg10
S'/usr/local/lib/python2.7/dist-packages/django/contrib/sessions/models'
p1787
sg12
g13
(g14
g15
NtRp1788
(dp1789
g18
I1
sg19
I0
sg20
I23
sg21
I0
sg22
I0
sg23
I7
sg24
I0
sbssg25
S'x\xddm4\x9e\xd9\xf8\x08\xfb\xd4[C\xe7ER\xc5'
p1790
ssS'_usr_local_lib_python2_7_dist-packages_django_views_generic_detail'
p1791
(dp1792
g6
(dp1793
g8
S'_usr_local_lib_python2_7_dist-packages_django_views_generic_detail.html'
p1794
sg10
S'/usr/local/lib/python2.7/dist-packages/django/views/generic/detail'
p1795
sg12
g13
(g14
g15
NtRp1796
(dp1797
g18
I1
sg19
I0
sg20
I77
sg21
I0
sg22
I0
sg23
I52
sg24
I0
sbssg25
S'\xcbU\xf5\xf4\x85\x8c\x0488\x87I\xb2Y\xc4\xc9\x1f'
p1798
ssS'miembro_cp___init__'
p1799
(dp1800
g6
(dp1801
g8
S'miembro_cp___init__.html'
p1802
sg10
S'miembro_cp/__init__'
p1803
sg12
g13
(g14
g15
NtRp1804
(dp1805
g18
I1
sg19
I0
sg20
I0
sg21
I0
sg22
I0
sg23
I0
sg24
I0
sbssg25
S'\xb0\xc8pN\xaf>\xa0\xbaz\x144\xe0A9\xb8?'
p1806
ssS'_usr_local_lib_python2_7_dist-packages_django_core_paginator'
p1807
(dp1808
g6
(dp1809
g8
S'_usr_local_lib_python2_7_dist-packages_django_core_paginator.html'
p1810
sg10
S'/usr/local/lib/python2.7/dist-packages/django/core/paginator'
p1811
sg12
g13
(g14
g15
NtRp1812
(dp1813
g18
I1
sg19
I0
sg20
I90
sg21
I0
sg22
I0
sg23
I57
sg24
I0
sbssg25
S'\x95\xfd\xfe\xe4\xcdI\xb7\x86\xaf\xa7\xf3\x19^\xeb\x19I'
p1814
ssS'_usr_local_lib_python2_7_dist-packages_django_http_response'
p1815
(dp1816
g6
(dp1817
g8
S'_usr_local_lib_python2_7_dist-packages_django_http_response.html'
p1818
sg10
S'/usr/local/lib/python2.7/dist-packages/django/http/response'
p1819
sg12
g13
(g14
g15
NtRp1820
(dp1821
g18
I1
sg19
I0
sg20
I245
sg21
I0
sg22
I0
sg23
I116
sg24
I0
sbssg25
S'@\xe9\x0c\xc3b\x82\x12l\xedABC3g\x7f\x04'
p1822
ssS'_usr_local_lib_python2_7_dist-packages_django_contrib_sessions_backends___init__'
p1823
(dp1824
g6
(dp1825
g8
S'_usr_local_lib_python2_7_dist-packages_django_contrib_sessions_backends___init__.html'
p1826
sg10
S'/usr/local/lib/python2.7/dist-packages/django/contrib/sessions/backends/__init__'
p1827
sg12
g13
(g14
g15
NtRp1828
(dp1829
g18
I1
sg19
I0
sg20
I0
sg21
I0
sg22
I0
sg23
I0
sg24
I0
sbssg25
S'\xb0\xc8pN\xaf>\xa0\xbaz\x144\xe0A9\xb8?'
p1830
ssS'clei___init__'
p1831
(dp1832
g6
(dp1833
g8
S'clei___init__.html'
p1834
sg10
S'clei/__init__'
p1835
sg12
g13
(g14
g15
NtRp1836
(dp1837
g18
I1
sg19
I0
sg20
I0
sg21
I0
sg22
I0
sg23
I0
sg24
I0
sbssg25
S'\xb0\xc8pN\xaf>\xa0\xbaz\x144\xe0A9\xb8?'
p1838
ssS'_usr_local_lib_python2_7_dist-packages_django_contrib_auth_tokens'
p1839
(dp1840
g6
(dp1841
g8
S'_usr_local_lib_python2_7_dist-packages_django_contrib_auth_tokens.html'
p1842
sg10
S'/usr/local/lib/python2.7/dist-packages/django/contrib/auth/tokens'
p1843
sg12
g13
(g14
g15
NtRp1844
(dp1845
g18
I1
sg19
I0
sg20
I34
sg21
I0
sg22
I0
sg23
I22
sg24
I0
sbssg25
S'\xd1\xd4\x9e\xff2}]\xe5\x00\xf9\xfe\x868\xa6\x92+'
p1846
ssS'_usr_local_lib_python2_7_dist-packages_django_contrib_auth_management___init__'
p1847
(dp1848
g6
(dp1849
g8
S'_usr_local_lib_python2_7_dist-packages_django_contrib_auth_management___init__.html'
p1850
sg10
S'/usr/local/lib/python2.7/dist-packages/django/contrib/auth/management/__init__'
p1851
sg12
g13
(g14
g15
NtRp1852
(dp1853
g18
I1
sg19
I0
sg20
I101
sg21
I0
sg22
I0
sg23
I49
sg24
I0
sbssg25
S'\x92g\xe5\xf4O.\xb8\xb4:^\xfeh\xc4\xe1\x91\xfc'
p1854
ssS'_usr_local_lib_python2_7_dist-packages_django_db_models___init__'
p1855
(dp1856
g6
(dp1857
g8
S'_usr_local_lib_python2_7_dist-packages_django_db_models___init__.html'
p1858
sg10
S'/usr/local/lib/python2.7/dist-packages/django/db/models/__init__'
p1859
sg12
g13
(g14
g15
NtRp1860
(dp1861
g18
I1
sg19
I0
sg20
I20
sg21
I0
sg22
I0
sg23
I5
sg24
I0
sbssg25
S'G\xac"\x19}\xc2v\x9d\x80\x18^-\xf5+Sd'
p1862
ssS'_usr_local_lib_python2_7_dist-packages_django_test_signals'
p1863
(dp1864
g6
(dp1865
g8
S'_usr_local_lib_python2_7_dist-packages_django_test_signals.html'
p1866
sg10
S'/usr/local/lib/python2.7/dist-packages/django/test/signals'
p1867
sg12
g13
(g14
g15
NtRp1868
(dp1869
g18
I1
sg19
I0
sg20
I50
sg21
I0
sg22
I0
sg23
I35
sg24
I0
sbssg25
S'\xd2\xaet\x89\x93\xe1\xca\xecB\x94{\xfd$Boz'
p1870
ssS'_usr_local_lib_python2_7_dist-packages_django_core_serializers___init__'
p1871
(dp1872
g6
(dp1873
g8
S'_usr_local_lib_python2_7_dist-packages_django_core_serializers___init__.html'
p1874
sg10
S'/usr/local/lib/python2.7/dist-packages/django/core/serializers/__init__'
p1875
sg12
g13
(g14
g15
NtRp1876
(dp1877
g18
I1
sg19
I0
sg20
I64
sg21
I0
sg22
I0
sg23
I28
sg24
I0
sbssg25
S'O\xd1\xb872\xb0x\xdcJ7\x8a\xa4\x04:>\xa2'
p1878
ssS'_usr_local_lib_python2_7_dist-packages_django_db___init__'
p1879
(dp1880
g6
(dp1881
g8
S'_usr_local_lib_python2_7_dist-packages_django_db___init__.html'
p1882
sg10
S'/usr/local/lib/python2.7/dist-packages/django/db/__init__'
p1883
sg12
g13
(g14
g15
NtRp1884
(dp1885
g18
I1
sg19
I0
sg20
I45
sg21
I0
sg22
I0
sg23
I18
sg24
I0
sbssg25
S'\xf4\x9d_\x92\xdf#\x83\x94C\xb8oQ\x8f\xba\xa5\x07'
p1886
ssS'_usr_local_lib_python2_7_dist-packages_django_core_validators'
p1887
(dp1888
g6
(dp1889
g8
S'_usr_local_lib_python2_7_dist-packages_django_core_validators.html'
p1890
sg10
S'/usr/local/lib/python2.7/dist-packages/django/core/validators'
p1891
sg12
g13
(g14
g15
NtRp1892
(dp1893
g18
I1
sg19
I0
sg20
I133
sg21
I0
sg22
I0
sg23
I58
sg24
I0
sbssg25
S'\xdf7C:n)\xa7\xe0\xcd\x11\xd8\x8b-\xf7\xc5^'
p1894
ssS'_usr_local_lib_python2_7_dist-packages_django_contrib_messages_api'
p1895
(dp1896
g6
(dp1897
g8
S'_usr_local_lib_python2_7_dist-packages_django_contrib_messages_api.html'
p1898
sg10
S'/usr/local/lib/python2.7/dist-packages/django/contrib/messages/api'
p1899
sg12
g13
(g14
g15
NtRp1900
(dp1901
g18
I1
sg19
I0
sg20
I34
sg21
I0
sg22
I0
sg23
I20
sg24
I0
sbssg25
S'i\xb5\x8fk2\x89\xf2JF0\xfa\xd1z\x05\xaf\xe5'
p1902
ssS'clei_admin'
p1903
(dp1904
g6
(dp1905
g8
S'clei_admin.html'
p1906
sg10
S'clei/admin'
p1907
sg12
g13
(g14
g15
NtRp1908
(dp1909
g18
I1
sg19
I0
sg20
I4
sg21
I0
sg22
I0
sg23
I0
sg24
I0
sbssg25
S"\xaa\xeb\xf6'5,\xbbo\xb0\xeb\x973`\x07\xd2."
p1910
ssS'_usr_local_lib_python2_7_dist-packages_django_core___init__'
p1911
(dp1912
g6
(dp1913
g8
S'_usr_local_lib_python2_7_dist-packages_django_core___init__.html'
p1914
sg10
S'/usr/local/lib/python2.7/dist-packages/django/core/__init__'
p1915
sg12
g13
(g14
g15
NtRp1916
(dp1917
g18
I1
sg19
I0
sg20
I0
sg21
I0
sg22
I0
sg23
I0
sg24
I0
sbssg25
S'\xb0\xc8pN\xaf>\xa0\xbaz\x144\xe0A9\xb8?'
p1918
ssS'_usr_local_lib_python2_7_dist-packages_django_template_loader_tags'
p1919
(dp1920
g6
(dp1921
g8
S'_usr_local_lib_python2_7_dist-packages_django_template_loader_tags.html'
p1922
sg10
S'/usr/local/lib/python2.7/dist-packages/django/template/loader_tags'
p1923
sg12
g13
(g14
g15
NtRp1924
(dp1925
g18
I1
sg19
I0
sg20
I177
sg21
I0
sg22
I0
sg23
I79
sg24
I0
sbssg25
S'\x06A:\x0fK|\xa4\xd4\xa8[\x9f\xcb\xd6c(\xa7'
p1926
ssS'_usr_local_lib_python2_7_dist-packages_django_contrib_contenttypes___init__'
p1927
(dp1928
g6
(dp1929
g8
S'_usr_local_lib_python2_7_dist-packages_django_contrib_contenttypes___init__.html'
p1930
sg10
S'/usr/local/lib/python2.7/dist-packages/django/contrib/contenttypes/__init__'
p1931
sg12
g13
(g14
g15
NtRp1932
(dp1933
g18
I1
sg19
I0
sg20
I0
sg21
I0
sg22
I0
sg23
I0
sg24
I0
sbssg25
S'\xb0\xc8pN\xaf>\xa0\xbaz\x144\xe0A9\xb8?'
p1934
ssS'_usr_local_lib_python2_7_dist-packages_django_utils_xmlutils'
p1935
(dp1936
g6
(dp1937
g8
S'_usr_local_lib_python2_7_dist-packages_django_utils_xmlutils.html'
p1938
sg10
S'/usr/local/lib/python2.7/dist-packages/django/utils/xmlutils'
p1939
sg12
g13
(g14
g15
NtRp1940
(dp1941
g18
I1
sg19
I0
sg20
I8
sg21
I0
sg22
I0
sg23
I5
sg24
I0
sbssg25
S'\xf1J\xb5(\x1cm\xf1\x8bQ\xab\x89\xc1\xce\x91R\x8f'
p1942
ssS'_usr_local_lib_python2_7_dist-packages_django_contrib_auth_admin'
p1943
(dp1944
g6
(dp1945
g8
S'_usr_local_lib_python2_7_dist-packages_django_contrib_auth_admin.html'
p1946
sg10
S'/usr/local/lib/python2.7/dist-packages/django/contrib/auth/admin'
p1947
sg12
g13
(g14
g15
NtRp1948
(dp1949
g18
I1
sg19
I0
sg20
I96
sg21
I0
sg22
I0
sg23
I45
sg24
I0
sbssg25
S'\x14\xa2\xea@ i\xe6\x90\xac\xc5\xf4*Q\xfaE\x80'
p1950
ssS'articulo_urls'
p1951
(dp1952
g6
(dp1953
g8
S'articulo_urls.html'
p1954
sg10
S'articulo/urls'
p1955
sg12
g13
(g14
g15
NtRp1956
(dp1957
g18
I1
sg19
I0
sg20
I4
sg21
I0
sg22
I0
sg23
I0
sg24
I0
sbssg25
S'\x80#y\xaf\xe2"4\xb2P^\xcd\xe3\x84%i3'
p1958
ssS'_usr_local_lib_python2_7_dist-packages_django_contrib_admin_templatetags_admin_static'
p1959
(dp1960
g6
(dp1961
g8
S'_usr_local_lib_python2_7_dist-packages_django_contrib_admin_templatetags_admin_static.html'
p1962
sg10
S'/usr/local/lib/python2.7/dist-packages/django/contrib/admin/templatetags/admin_static'
p1963
sg12
g13
(g14
g15
NtRp1964
(dp1965
g18
I1
sg19
I0
sg20
I7
sg21
I0
sg22
I0
sg23
I1
sg24
I0
sbssg25
S'\x99{\xd7\xbc\xa3W\x085\xed$9\xd94r\xea\x15'
p1966
ssS'_usr_local_lib_python2_7_dist-packages_django_db_models_signals'
p1967
(dp1968
g6
(dp1969
g8
S'_usr_local_lib_python2_7_dist-packages_django_db_models_signals.html'
p1970
sg10
S'/usr/local/lib/python2.7/dist-packages/django/db/models/signals'
p1971
sg12
g13
(g14
g15
NtRp1972
(dp1973
g18
I1
sg19
I0
sg20
I11
sg21
I0
sg22
I0
sg23
I0
sg24
I0
sbssg25
S'\x06h\x01\xc72@=\x97\xff\x8a\xea\xf4D\xbb\xc1\xd2'
p1974
ssS'_usr_local_lib_python2_7_dist-packages_django_views_debug'
p1975
(dp1976
g6
(dp1977
g8
S'_usr_local_lib_python2_7_dist-packages_django_views_debug.html'
p1978
sg10
S'/usr/local/lib/python2.7/dist-packages/django/views/debug'
p1979
sg12
g13
(g14
g15
NtRp1980
(dp1981
g18
I1
sg19
I0
sg20
I291
sg21
I0
sg22
I0
sg23
I242
sg24
I0
sbssg25
S'\xdcn\xc1K\xa3\x9d\xd9\xe5\xaf\xcc~\xb9g\x0c\xe6\x88'
p1982
ssS'_usr_local_lib_python2_7_dist-packages_django_db_models_query_utils'
p1983
(dp1984
g6
(dp1985
g8
S'_usr_local_lib_python2_7_dist-packages_django_db_models_query_utils.html'
p1986
sg10
S'/usr/local/lib/python2.7/dist-packages/django/db/models/query_utils'
p1987
sg12
g13
(g14
g15
NtRp1988
(dp1989
g18
I1
sg19
I0
sg20
I100
sg21
I0
sg22
I0
sg23
I72
sg24
I0
sbssg25
S'\xd8\xfc\xb9\xc3\xb8T\x0fr\x98\xc3\xe7U6\xb38\xe8'
p1990
ssS'_usr_local_lib_python2_7_dist-packages_django_contrib_auth_signals'
p1991
(dp1992
g6
(dp1993
g8
S'_usr_local_lib_python2_7_dist-packages_django_contrib_auth_signals.html'
p1994
sg10
S'/usr/local/lib/python2.7/dist-packages/django/contrib/auth/signals'
p1995
sg12
g13
(g14
g15
NtRp1996
(dp1997
g18
I1
sg19
I0
sg20
I4
sg21
I0
sg22
I0
sg23
I0
sg24
I0
sbssg25
S'juq\x85\xf8\xf6\x92\xd4\xc6;\xc1\x16\xc2\xaa\xe6\xec'
p1998
ssS'_usr_local_lib_python2_7_dist-packages_django_contrib_auth_middleware'
p1999
(dp2000
g6
(dp2001
g8
S'_usr_local_lib_python2_7_dist-packages_django_contrib_auth_middleware.html'
p2002
sg10
S'/usr/local/lib/python2.7/dist-packages/django/contrib/auth/middleware'
p2003
sg12
g13
(g14
g15
NtRp2004
(dp2005
g18
I1
sg19
I0
sg20
I44
sg21
I0
sg22
I0
sg23
I30
sg24
I0
sbssg25
S'\x02\xe0\x95\xd7\xa4D\x86\xe1\xd0e\x1e\xe1J\x1c\x13\xbe'
p2006
ssS'_usr_local_lib_python2_7_dist-packages_django_contrib_staticfiles_management___init__'
p2007
(dp2008
g6
(dp2009
g8
S'_usr_local_lib_python2_7_dist-packages_django_contrib_staticfiles_management___init__.html'
p2010
sg10
S'/usr/local/lib/python2.7/dist-packages/django/contrib/staticfiles/management/__init__'
p2011
sg12
g13
(g14
g15
NtRp2012
(dp2013
g18
I1
sg19
I0
sg20
I0
sg21
I0
sg22
I0
sg23
I0
sg24
I0
sbssg25
S'\xb0\xc8pN\xaf>\xa0\xbaz\x144\xe0A9\xb8?'
p2014
ssS'_usr_local_lib_python2_7_dist-packages_django_views_decorators_debug'
p2015
(dp2016
g6
(dp2017
g8
S'_usr_local_lib_python2_7_dist-packages_django_views_decorators_debug.html'
p2018
sg10
S'/usr/local/lib/python2.7/dist-packages/django/views/decorators/debug'
p2019
sg12
g13
(g14
g15
NtRp2020
(dp2021
g18
I1
sg19
I0
sg20
I21
sg21
I0
sg22
I0
sg23
I13
sg24
I0
sbssg25
S'\xcbA\x90\x9f]\xf8\xa8\xcaB.R!M\x80\x05\x0e'
p2022
ssS'_usr_local_lib_python2_7_dist-packages_django_db_models_base'
p2023
(dp2024
g6
(dp2025
g8
S'_usr_local_lib_python2_7_dist-packages_django_db_models_base.html'
p2026
sg10
S'/usr/local/lib/python2.7/dist-packages/django/db/models/base'
p2027
sg12
g13
(g14
g15
NtRp2028
(dp2029
g18
I1
sg19
I0
sg20
I559
sg21
I0
sg22
I0
sg23
I324
sg24
I0
sbssg25
S'Q~\x1f\xfag\xfa\xa1\x07y\xcd\x02SJ\xc1\x19\x11'
p2030
ssS'_usr_local_lib_python2_7_dist-packages_django_views_decorators_csrf'
p2031
(dp2032
g6
(dp2033
g8
S'_usr_local_lib_python2_7_dist-packages_django_views_decorators_csrf.html'
p2034
sg10
S'/usr/local/lib/python2.7/dist-packages/django/views/decorators/csrf'
p2035
sg12
g13
(g14
g15
NtRp2036
(dp2037
g18
I1
sg19
I0
sg20
I27
sg21
I0
sg22
I0
sg23
I9
sg24
I0
sbssg25
S'\x14[\tZ\x80\x0b\xc8A\xc0\x17\xde\x04n\xe1\x1c\xf4'
p2038
ssS'_usr_local_lib_python2_7_dist-packages_django_http_multipartparser'
p2039
(dp2040
g6
(dp2041
g8
S'_usr_local_lib_python2_7_dist-packages_django_http_multipartparser.html'
p2042
sg10
S'/usr/local/lib/python2.7/dist-packages/django/http/multipartparser'
p2043
sg12
g13
(g14
g15
NtRp2044
(dp2045
g18
I1
sg19
I0
sg20
I345
sg21
I0
sg22
I0
sg23
I292
sg24
I0
sbssg25
S'\xba\x86\x8c\xd4Y\xfe\x85\xb53x\xb2\xd5\xd79H\x01'
p2046
ssS'_usr_local_lib_python2_7_dist-packages_django_templatetags_static'
p2047
(dp2048
g6
(dp2049
g8
S'_usr_local_lib_python2_7_dist-packages_django_templatetags_static.html'
p2050
sg10
S'/usr/local/lib/python2.7/dist-packages/django/templatetags/static'
p2051
sg12
g13
(g14
g15
NtRp2052
(dp2053
g18
I1
sg19
I0
sg20
I68
sg21
I0
sg22
I0
sg23
I35
sg24
I0
sbssg25
S'\xd4T(\xf0\xe3\x8a(\xb6\xb9R\xeb^\xeb3\xbaw'
p2054
ssS'_usr_local_lib_python2_7_dist-packages_django_utils_itercompat'
p2055
(dp2056
g6
(dp2057
g8
S'_usr_local_lib_python2_7_dist-packages_django_utils_itercompat.html'
p2058
sg10
S'/usr/local/lib/python2.7/dist-packages/django/utils/itercompat'
p2059
sg12
g13
(g14
g15
NtRp2060
(dp2061
g18
I1
sg19
I0
sg20
I17
sg21
I0
sg22
I0
sg23
I5
sg24
I0
sbssg25
S'\xff\xffT)9f\xe4k\x03"\x8e%\xfd\x00\x8c\x04'
p2062
ssS'_usr_local_lib_python2_7_dist-packages_django_views_generic_list'
p2063
(dp2064
g6
(dp2065
g8
S'_usr_local_lib_python2_7_dist-packages_django_views_generic_list.html'
p2066
sg10
S'/usr/local/lib/python2.7/dist-packages/django/views/generic/list'
p2067
sg12
g13
(g14
g15
NtRp2068
(dp2069
g18
I1
sg19
I0
sg20
I89
sg21
I0
sg22
I0
sg23
I60
sg24
I0
sbssg25
S'\xbeY\x0f\xb0xi\xf7\xed\x9f\xb5\x87=\xdb2\x92\xb7'
p2070
ssS'_usr_local_lib_python2_7_dist-packages_django_core_cache___init__'
p2071
(dp2072
g6
(dp2073
g8
S'_usr_local_lib_python2_7_dist-packages_django_core_cache___init__.html'
p2074
sg10
S'/usr/local/lib/python2.7/dist-packages/django/core/cache/__init__'
p2075
sg12
g13
(g14
g15
NtRp2076
(dp2077
g18
I1
sg19
I0
sg20
I58
sg21
I0
sg22
I0
sg23
I29
sg24
I0
sbssg25
S'\x93\x80|UV\xee\x00\xb9`\xff\xbes5\xd3ZK'
p2078
ssS'_usr_local_lib_python2_7_dist-packages_django_core_cache_backends_locmem'
p2079
(dp2080
g6
(dp2081
g8
S'_usr_local_lib_python2_7_dist-packages_django_core_cache_backends_locmem.html'
p2082
sg10
S'/usr/local/lib/python2.7/dist-packages/django/core/cache/backends/locmem'
p2083
sg12
g13
(g14
g15
NtRp2084
(dp2085
g18
I1
sg19
I0
sg20
I118
sg21
I0
sg22
I0
sg23
I92
sg24
I0
sbssg25
S'\xe1Wb6\xd2\xa7\x14?\x8d\x80\xfa\xf8\x8e\xd3\xb4^'
p2086
ssS'_usr_local_lib_python2_7_dist-packages_django_core_management_commands_test'
p2087
(dp2088
g6
(dp2089
g8
S'_usr_local_lib_python2_7_dist-packages_django_core_management_commands_test.html'
p2090
sg10
S'/usr/local/lib/python2.7/dist-packages/django/core/management/commands/test'
p2091
sg12
g13
(g14
g15
NtRp2092
(dp2093
g18
I1
sg19
I0
sg20
I46
sg21
I0
sg22
I0
sg23
I5
sg24
I0
sbssg25
S"'8\xe6\xd3G%\x13\xb6\xf6TvR\xd9\x8b\x1a\x1e"
p2094
ssS'_usr_local_lib_python2_7_dist-packages_django_conf_locale_es___init__'
p2095
(dp2096
g6
(dp2097
g8
S'_usr_local_lib_python2_7_dist-packages_django_conf_locale_es___init__.html'
p2098
sg10
S'/usr/local/lib/python2.7/dist-packages/django/conf/locale/es/__init__'
p2099
sg12
g13
(g14
g15
NtRp2100
(dp2101
g18
I1
sg19
I0
sg20
I0
sg21
I0
sg22
I0
sg23
I0
sg24
I0
sbssg25
S'\xb0\xc8pN\xaf>\xa0\xbaz\x144\xe0A9\xb8?'
p2102
ssS'_usr_local_lib_python2_7_dist-packages_django_http_request'
p2103
(dp2104
g6
(dp2105
g8
S'_usr_local_lib_python2_7_dist-packages_django_http_request.html'
p2106
sg10
S'/usr/local/lib/python2.7/dist-packages/django/http/request'
p2107
sg12
g13
(g14
g15
NtRp2108
(dp2109
g18
I1
sg19
I0
sg20
I291
sg21
I0
sg22
I0
sg23
I194
sg24
I0
sbssg25
S'/\x98\xd5\x0b\x7f\x99i\x1d4%\xe4\xcdF\x01\x92\x1c'
p2110
ssS'evento_admin'
p2111
(dp2112
g6
(dp2113
g8
S'evento_admin.html'
p2114
sg10
S'evento/admin'
p2115
sg12
g13
(g14
g15
NtRp2116
(dp2117
g18
I1
sg19
I0
sg20
I11
sg21
I0
sg22
I0
sg23
I0
sg24
I0
sbssg25
S'\xc4~u\xe6cd\x8cd\x90\xb7\xaak\x83V\xfd\xce'
p2118
ssS'_usr_local_lib_python2_7_dist-packages_django_db_models_loading'
p2119
(dp2120
g6
(dp2121
g8
S'_usr_local_lib_python2_7_dist-packages_django_db_models_loading.html'
p2122
sg10
S'/usr/local/lib/python2.7/dist-packages/django/db/models/loading'
p2123
sg12
g13
(g14
g15
NtRp2124
(dp2125
g18
I1
sg19
I0
sg20
I152
sg21
I0
sg22
I0
sg23
I30
sg24
I0
sbssg25
S'\xe38\x14t\xd9\xb4\n\xb3A\xc0\x10\xa2/2\xc2$'
p2126
ssS'persona_admin'
p2127
(dp2128
g6
(dp2129
g8
S'persona_admin.html'
p2130
sg10
S'persona/admin'
p2131
sg12
g13
(g14
g15
NtRp2132
(dp2133
g18
I1
sg19
I0
sg20
I3
sg21
I0
sg22
I0
sg23
I0
sg24
I0
sbssg25
S'\xbaz\xdf\xbe\xeb\x0f\x1fX\xbbx\xa0\x9b\x86\x1b=='
p2134
ssS'_usr_local_lib_python2_7_dist-packages_django_templatetags___init__'
p2135
(dp2136
g6
(dp2137
g8
S'_usr_local_lib_python2_7_dist-packages_django_templatetags___init__.html'
p2138
sg10
S'/usr/local/lib/python2.7/dist-packages/django/templatetags/__init__'
p2139
sg12
g13
(g14
g15
NtRp2140
(dp2141
g18
I1
sg19
I0
sg20
I0
sg21
I0
sg22
I0
sg23
I0
sg24
I0
sbssg25
S'\xb0\xc8pN\xaf>\xa0\xbaz\x144\xe0A9\xb8?'
p2142
ssS'_usr_local_lib_python2_7_dist-packages_django_db_models_options'
p2143
(dp2144
g6
(dp2145
g8
S'_usr_local_lib_python2_7_dist-packages_django_db_models_options.html'
p2146
sg10
S'/usr/local/lib/python2.7/dist-packages/django/db/models/options'
p2147
sg12
g13
(g14
g15
NtRp2148
(dp2149
g18
I1
sg19
I0
sg20
I348
sg21
I0
sg22
I0
sg23
I97
sg24
I0
sbssg25
S'\xbeQ\x99\x87C\xba\x1ePE\tC\x02\xf5\xffB='
p2150
ssS'articulo_tests'
p2151
(dp2152
g564
(dp2153
g566
S'articulo_tests.html'
p2154
sg568
S'articulo/tests'
p2155
sg570
g13
(g14
g15
NtRp2156
(dp2157
g18
I1
sg19
I0
sg20
I1
sg21
I0
sg22
I0
sg23
I0
sg24
I0
sbssg573
S'\x97e\xc4\xf4\xb6\x04\xfd<\xae\xb2Y\x0e\xa0+\xf2\xcc'
p2158
ssS'_usr_local_lib_python2_7_dist-packages_django_template___init__'
p2159
(dp2160
g6
(dp2161
g8
S'_usr_local_lib_python2_7_dist-packages_django_template___init__.html'
p2162
sg10
S'/usr/local/lib/python2.7/dist-packages/django/template/__init__'
p2163
sg12
g13
(g14
g15
NtRp2164
(dp2165
g18
I1
sg19
I0
sg20
I6
sg21
I0
sg22
I0
sg23
I0
sg24
I0
sbssg25
S'\xb6\xa0l\x13\xa8q\x87\r\xa8\xea\xdd\x99\xef\xf5k\xd3'
p2166
ssS'_usr_local_lib_python2_7_dist-packages_django_contrib_messages_middleware'
p2167
(dp2168
g6
(dp2169
g8
S'_usr_local_lib_python2_7_dist-packages_django_contrib_messages_middleware.html'
p2170
sg10
S'/usr/local/lib/python2.7/dist-packages/django/contrib/messages/middleware'
p2171
sg12
g13
(g14
g15
NtRp2172
(dp2173
g18
I1
sg19
I0
sg20
I11
sg21
I0
sg22
I0
sg23
I1
sg24
I0
sbssg25
S'Ck\x91\x91\x8c\xffq\xa6?\x04\x83\xb5Q\x8eJ\xca'
p2174
ssS'_usr_local_lib_python2_7_dist-packages_django_utils_datetime_safe'
p2175
(dp2176
g6
(dp2177
g8
S'_usr_local_lib_python2_7_dist-packages_django_utils_datetime_safe.html'
p2178
sg10
S'/usr/local/lib/python2.7/dist-packages/django/utils/datetime_safe'
p2179
sg12
g13
(g14
g15
NtRp2180
(dp2181
g18
I1
sg19
I0
sg20
I56
sg21
I0
sg22
I0
sg23
I42
sg24
I0
sbssg25
S'\x0eCr\xfb\x1a\x18\n\xf8\xb1\xdf\xea\xe3\xb1Pfk'
p2182
ssS'_usr_local_lib_python2_7_dist-packages_django_contrib_messages_storage_fallback'
p2183
(dp2184
g6
(dp2185
g8
S'_usr_local_lib_python2_7_dist-packages_django_contrib_messages_storage_fallback.html'
p2186
sg10
S'/usr/local/lib/python2.7/dist-packages/django/contrib/messages/storage/fallback'
p2187
sg12
g13
(g14
g15
NtRp2188
(dp2189
g18
I1
sg19
I0
sg20
I29
sg21
I0
sg22
I0
sg23
I18
sg24
I0
sbssg25
S"\x86\xf6\x90W\x81\x1c\xf3'\x83\xb7\xa0A{\xf4x\x07"
p2190
ssS'_usr_local_lib_python2_7_dist-packages_django_core_urlresolvers'
p2191
(dp2192
g6
(dp2193
g8
S'_usr_local_lib_python2_7_dist-packages_django_core_urlresolvers.html'
p2194
sg10
S'/usr/local/lib/python2.7/dist-packages/django/core/urlresolvers'
p2195
sg12
g13
(g14
g15
NtRp2196
(dp2197
g18
I1
sg19
I0
sg20
I359
sg21
I0
sg22
I0
sg23
I193
sg24
I0
sbssg25
S"+\xd0^'\xd6\x8d\xed\xaf\x87\x9f\xd8^_~4J"
p2198
ssS'_usr_local_lib_python2_7_dist-packages_django_views_generic_edit'
p2199
(dp2200
g6
(dp2201
g8
S'_usr_local_lib_python2_7_dist-packages_django_views_generic_edit.html'
p2202
sg10
S'/usr/local/lib/python2.7/dist-packages/django/views/generic/edit'
p2203
sg12
g13
(g14
g15
NtRp2204
(dp2205
g18
I1
sg19
I0
sg20
I111
sg21
I0
sg22
I0
sg23
I61
sg24
I0
sbssg25
S'\xbdW\xa5\x12\xf8\xed\xabKz\x13l\x96$a5\xec'
p2206
ssS'_usr_local_lib_python2_7_dist-packages_django_contrib_auth_forms'
p2207
(dp2208
g6
(dp2209
g8
S'_usr_local_lib_python2_7_dist-packages_django_contrib_auth_forms.html'
p2210
sg10
S'/usr/local/lib/python2.7/dist-packages/django/contrib/auth/forms'
p2211
sg12
g13
(g14
g15
NtRp2212
(dp2213
g18
I1
sg19
I0
sg20
I184
sg21
I0
sg22
I0
sg23
I104
sg24
I0
sbssg25
S'\x02x}\xc80\xcf\xa5\x99\xa6L\xc6h\xed\xef\xac\xed'
p2214
ssS'articulo_models'
p2215
(dp2216
g6
(dp2217
g8
S'articulo_models.html'
p2218
sg10
S'articulo/models'
p2219
sg12
g13
(g14
g15
NtRp2220
(dp2221
g18
I1
sg19
I0
sg20
I16
sg21
I0
sg22
I0
sg23
I2
sg24
I0
sbssg25
S'e\xa0\xb5\xc6=\xaa\xa2\x1dxm\xf7\xae_\x0c\xdb\xcc'
p2222
ssS'persona_models'
p2223
(dp2224
g6
(dp2225
g8
S'persona_models.html'
p2226
sg10
S'persona/models'
p2227
sg12
g13
(g14
g15
NtRp2228
(dp2229
g18
I1
sg19
I0
sg20
I10
sg21
I0
sg22
I0
sg23
I1
sg24
I0
sbssg25
S'\x19\xe8\xb4n"\x04\xdbgJ\xffG3\x98\xecSw'
p2230
ssS'_usr_local_lib_python2_7_dist-packages_django_middleware_csrf'
p2231
(dp2232
g6
(dp2233
g8
S'_usr_local_lib_python2_7_dist-packages_django_middleware_csrf.html'
p2234
sg10
S'/usr/local/lib/python2.7/dist-packages/django/middleware/csrf'
p2235
sg12
g13
(g14
g15
NtRp2236
(dp2237
g18
I1
sg19
I0
sg20
I81
sg21
I0
sg22
I0
sg23
I40
sg24
I0
sbssg25
S"w\x1e5\n'v3\x02\xd3yoj@\xdf\x14\xfc"
p2238
ssS'_usr_local_lib_python2_7_dist-packages_django_middleware_cache'
p2239
(dp2240
g6
(dp2241
g8
S'_usr_local_lib_python2_7_dist-packages_django_middleware_cache.html'
p2242
sg10
S'/usr/local/lib/python2.7/dist-packages/django/middleware/cache'
p2243
sg12
g13
(g14
g15
NtRp2244
(dp2245
g18
I1
sg19
I0
sg20
I94
sg21
I0
sg22
I0
sg23
I80
sg24
I0
sbssg25
S'5\xac1p"\x0e\xc8d\x06\x96\xe6\xd6\x80\xb7\x9d\xef'
p2246
ssS'_usr_local_lib_python2_7_dist-packages_django_contrib_messages_constants'
p2247
(dp2248
g6
(dp2249
g8
S'_usr_local_lib_python2_7_dist-packages_django_contrib_messages_constants.html'
p2250
sg10
S'/usr/local/lib/python2.7/dist-packages/django/contrib/messages/constants'
p2251
sg12
g13
(g14
g15
NtRp2252
(dp2253
g18
I1
sg19
I0
sg20
I6
sg21
I0
sg22
I0
sg23
I0
sg24
I0
sbssg25
S'\xe2n\xbf/\x11\x9a\xf2\xc6\xa4\x8f~\xd2\x91y\xd4\xda'
p2254
ssS'_usr_local_lib_python2_7_dist-packages_django_utils_formats'
p2255
(dp2256
g6
(dp2257
g8
S'_usr_local_lib_python2_7_dist-packages_django_utils_formats.html'
p2258
sg10
S'/usr/local/lib/python2.7/dist-packages/django/utils/formats'
p2259
sg12
g13
(g14
g15
NtRp2260
(dp2261
g18
I1
sg19
I0
sg20
I117
sg21
I0
sg22
I0
sg23
I55
sg24
I0
sbssg25
S'xq\xbfJI\x13\x81E\x98\xcb[\xc7\xa2\xa93\x9f'
p2262
ssS'asistente___init__'
p2263
(dp2264
g6
(dp2265
g8
S'asistente___init__.html'
p2266
sg10
S'asistente/__init__'
p2267
sg12
g13
(g14
g15
NtRp2268
(dp2269
g18
I1
sg19
I0
sg20
I0
sg21
I0
sg22
I0
sg23
I0
sg24
I0
sbssg25
S'\xb0\xc8pN\xaf>\xa0\xbaz\x144\xe0A9\xb8?'
p2270
ssS'_usr_local_lib_python2_7_dist-packages_django_contrib_contenttypes_models'
p2271
(dp2272
g6
(dp2273
g8
S'_usr_local_lib_python2_7_dist-packages_django_contrib_contenttypes_models.html'
p2274
sg10
S'/usr/local/lib/python2.7/dist-packages/django/contrib/contenttypes/models'
p2275
sg12
g13
(g14
g15
NtRp2276
(dp2277
g18
I1
sg19
I0
sg20
I96
sg21
I0
sg22
I0
sg23
I49
sg24
I0
sbssg25
S'\x8c_W@r0oZ\x98\xaaL\xf9Te\xf8\xc2'
p2278
ssS'_usr_local_lib_python2_7_dist-packages_django_utils_translation___init__'
p2279
(dp2280
g6
(dp2281
g8
S'_usr_local_lib_python2_7_dist-packages_django_utils_translation___init__.html'
p2282
sg10
S'/usr/local/lib/python2.7/dist-packages/django/utils/translation/__init__'
p2283
sg12
g13
(g14
g15
NtRp2284
(dp2285
g18
I1
sg19
I0
sg20
I110
sg21
I0
sg22
I0
sg23
I48
sg24
I0
sbssg25
S"\xead\xc2\xce*\xed\xe9R~>I\x86'\xe7W\xa1"
p2286
ssS'_usr_local_lib_python2_7_dist-packages_django_utils_regex_helper'
p2287
(dp2288
g6
(dp2289
g8
S'_usr_local_lib_python2_7_dist-packages_django_utils_regex_helper.html'
p2290
sg10
S'/usr/local/lib/python2.7/dist-packages/django/utils/regex_helper'
p2291
sg12
g13
(g14
g15
NtRp2292
(dp2293
g18
I1
sg19
I0
sg20
I188
sg21
I0
sg22
I0
sg23
I175
sg24
I0
sbssg25
S'\xab\xc0\xa2\xe6\xd9PI*\xba_T\xc0qG\x0e\x97'
p2294
ssS'_usr_local_lib_python2_7_dist-packages_django_forms_models'
p2295
(dp2296
g6
(dp2297
g8
S'_usr_local_lib_python2_7_dist-packages_django_forms_models.html'
p2298
sg10
S'/usr/local/lib/python2.7/dist-packages/django/forms/models'
p2299
sg12
g13
(g14
g15
NtRp2300
(dp2301
g18
I1
sg19
I0
sg20
I654
sg21
I0
sg22
I0
sg23
I476
sg24
I0
sbssg25
S'\x04[\\2\xca\xe4f\xb9\xee;BG\xd7\xb7j\xe9'
p2302
ssS'_usr_local_lib_python2_7_dist-packages_django_middleware_common'
p2303
(dp2304
g6
(dp2305
g8
S'_usr_local_lib_python2_7_dist-packages_django_middleware_common.html'
p2306
sg10
S'/usr/local/lib/python2.7/dist-packages/django/middleware/common'
p2307
sg12
g13
(g14
g15
NtRp2308
(dp2309
g18
I1
sg19
I0
sg20
I77
sg21
I0
sg22
I0
sg23
I47
sg24
I0
sbssg25
S'\xbd\x92Z\x98n\xc3\xd9\xa5\xcfd\x9b\x02E\x7f\xc4\xe5'
p2310
ssS'_usr_local_lib_python2_7_dist-packages_django___init__'
p2311
(dp2312
g6
(dp2313
g8
S'_usr_local_lib_python2_7_dist-packages_django___init__.html'
p2314
sg10
S'/usr/local/lib/python2.7/dist-packages/django/__init__'
p2315
sg12
g13
(g14
g15
NtRp2316
(dp2317
g18
I1
sg19
I0
sg20
I4
sg21
I0
sg22
I0
sg23
I0
sg24
I0
sbssg25
S'\x87(\xd8\x82\x90D\xc1\xa3p\xcaW\x94\x81\xca\xd0\xa7'
p2318
ssS'persona_tests'
p2319
(dp2320
g6
(dp2321
g8
S'persona_tests.html'
p2322
sg10
S'persona/tests'
p2323
sg12
g13
(g14
g15
NtRp2324
(dp2325
g18
I1
sg19
I0
sg20
I17
sg21
I0
sg22
I0
sg23
I0
sg24
I0
sbssg25
S'\xa8\x1f\xec\xbaN\xec\x95\xab\xff1k<\xcf\xc0.1'
p2326
sssS'version'
p2327
S'3.6'
p2328
sS'settings'
p2329
S'3\xcf\xa1\x19.\x88o$\x8cA\xde\xbd\xcd\x06\xa1\x0f'
p2330
sS'format'
p2331
I1
s.